ccopy_reg
_reconstructor
p1
(cmatplotlib.font_manager
FontManager
p2
c__builtin__
object
p3
NtRp4
(dp5
S'ttflist'
p6
(lp7
g1
(cmatplotlib.font_manager
FontEntry
p8
g3
NtRp9
(dp10
S'style'
p11
Vnormal
p12
sS'name'
p13
VSTIXSizeFourSym
p14
sS'weight'
p15
I700
sS'stretch'
p16
g12
sS'variant'
p17
g12
sS'fname'
p18
V/projects/sage/sage-7.5/local/lib/python2.7/site-packages/matplotlib/mpl-data/fonts/ttf/STIXSizFourSymBol.ttf
p19
sS'size'
p20
Vscalable
p21
sbag1
(g8
g3
NtRp22
(dp23
g11
Vitalic
p24
sg13
VSTIXNonUnicode
p25
sg15
I400
sg16
g12
sg17
g12
sg18
V/projects/sage/sage-7.5/local/lib/python2.7/site-packages/matplotlib/mpl-data/fonts/ttf/STIXNonUniIta.ttf
p26
sg20
g21
sbag1
(g8
g3
NtRp27
(dp28
g11
Voblique
p29
sg13
VBitstream Vera Sans
p30
sg15
I400
sg16
g12
sg17
g12
sg18
V/projects/sage/sage-7.5/local/lib/python2.7/site-packages/matplotlib/mpl-data/fonts/ttf/VeraIt.ttf
p31
sg20
g21
sbag1
(g8
g3
NtRp32
(dp33
g11
g12
sg13
VSTIXSizeOneSym
p34
sg15
I700
sg16
g12
sg17
g12
sg18
V/projects/sage/sage-7.5/local/lib/python2.7/site-packages/matplotlib/mpl-data/fonts/ttf/STIXSizOneSymBol.ttf
p35
sg20
g21
sbag1
(g8
g3
NtRp36
(dp37
g11
g12
sg13
Vcmsy10
p38
sg15
I400
sg16
g12
sg17
g12
sg18
V/projects/sage/sage-7.5/local/lib/python2.7/site-packages/matplotlib/mpl-data/fonts/ttf/cmsy10.ttf
p39
sg20
g21
sbag1
(g8
g3
NtRp40
(dp41
g11
g24
sg13
VSTIXGeneral
p42
sg15
I700
sg16
g12
sg17
g12
sg18
V/projects/sage/sage-7.5/local/lib/python2.7/site-packages/matplotlib/mpl-data/fonts/ttf/STIXGeneralBolIta.ttf
p43
sg20
g21
sbag1
(g8
g3
NtRp44
(dp45
g11
g12
sg13
VSTIXSizeTwoSym
p46
sg15
I400
sg16
g12
sg17
g12
sg18
V/projects/sage/sage-7.5/local/lib/python2.7/site-packages/matplotlib/mpl-data/fonts/ttf/STIXSizTwoSymReg.ttf
p47
sg20
g21
sbag1
(g8
g3
NtRp48
(dp49
g11
g24
sg13
VSTIXNonUnicode
p50
sg15
I700
sg16
g12
sg17
g12
sg18
V/projects/sage/sage-7.5/local/lib/python2.7/site-packages/matplotlib/mpl-data/fonts/ttf/STIXNonUniBolIta.ttf
p51
sg20
g21
sbag1
(g8
g3
NtRp52
(dp53
g11
g29
sg13
VBitstream Vera Sans Mono
p54
sg15
I700
sg16
g12
sg17
g12
sg18
V/projects/sage/sage-7.5/local/lib/python2.7/site-packages/matplotlib/mpl-data/fonts/ttf/VeraMoBI.ttf
p55
sg20
g21
sbag1
(g8
g3
NtRp56
(dp57
g11
g12
sg13
VBitstream Vera Sans
p58
sg15
I400
sg16
g12
sg17
g12
sg18
V/projects/sage/sage-7.5/local/lib/python2.7/site-packages/matplotlib/mpl-data/fonts/ttf/Vera.ttf
p59
sg20
g21
sbag1
(g8
g3
NtRp60
(dp61
g11
g12
sg13
VSTIXGeneral
p62
sg15
I700
sg16
g12
sg17
g12
sg18
V/projects/sage/sage-7.5/local/lib/python2.7/site-packages/matplotlib/mpl-data/fonts/ttf/STIXGeneralBol.ttf
p63
sg20
g21
sbag1
(g8
g3
NtRp64
(dp65
g11
g12
sg13
VBitstream Vera Serif
p66
sg15
I700
sg16
g12
sg17
g12
sg18
V/projects/sage/sage-7.5/local/lib/python2.7/site-packages/matplotlib/mpl-data/fonts/ttf/VeraSeBd.ttf
p67
sg20
g21
sbag1
(g8
g3
NtRp68
(dp69
g11
g12
sg13
VSTIXSizeFourSym
p70
sg15
I400
sg16
g12
sg17
g12
sg18
V/projects/sage/sage-7.5/local/lib/python2.7/site-packages/matplotlib/mpl-data/fonts/ttf/STIXSizFourSymReg.ttf
p71
sg20
g21
sbag1
(g8
g3
NtRp72
(dp73
g11
g24
sg13
VSTIXGeneral
p74
sg15
I400
sg16
g12
sg17
g12
sg18
V/projects/sage/sage-7.5/local/lib/python2.7/site-packages/matplotlib/mpl-data/fonts/ttf/STIXGeneralItalic.ttf
p75
sg20
g21
sbag1
(g8
g3
NtRp76
(dp77
g11
g12
sg13
Vcmmi10
p78
sg15
I400
sg16
g12
sg17
g12
sg18
V/projects/sage/sage-7.5/local/lib/python2.7/site-packages/matplotlib/mpl-data/fonts/ttf/cmmi10.ttf
p79
sg20
g21
sbag1
(g8
g3
NtRp80
(dp81
g11
g12
sg13
VBitstream Vera Sans Mono
p82
sg15
I700
sg16
g12
sg17
g12
sg18
V/projects/sage/sage-7.5/local/lib/python2.7/site-packages/matplotlib/mpl-data/fonts/ttf/VeraMoBd.ttf
p83
sg20
g21
sbag1
(g8
g3
NtRp84
(dp85
g11
g12
sg13
VSTIXSizeThreeSym
p86
sg15
I400
sg16
g12
sg17
g12
sg18
V/projects/sage/sage-7.5/local/lib/python2.7/site-packages/matplotlib/mpl-data/fonts/ttf/STIXSizThreeSymReg.ttf
p87
sg20
g21
sbag1
(g8
g3
NtRp88
(dp89
g11
g12
sg13
VSTIXSizeOneSym
p90
sg15
I400
sg16
g12
sg17
g12
sg18
V/projects/sage/sage-7.5/local/lib/python2.7/site-packages/matplotlib/mpl-data/fonts/ttf/STIXSizOneSymReg.ttf
p91
sg20
g21
sbag1
(g8
g3
NtRp92
(dp93
g11
g12
sg13
VBitstream Vera Sans
p94
sg15
I700
sg16
g12
sg17
g12
sg18
V/projects/sage/sage-7.5/local/lib/python2.7/site-packages/matplotlib/mpl-data/fonts/ttf/VeraBd.ttf
p95
sg20
g21
sbag1
(g8
g3
NtRp96
(dp97
g11
g12
sg13
VSTIXGeneral
p98
sg15
I400
sg16
g12
sg17
g12
sg18
V/projects/sage/sage-7.5/local/lib/python2.7/site-packages/matplotlib/mpl-data/fonts/ttf/STIXGeneral.ttf
p99
sg20
g21
sbag1
(g8
g3
NtRp100
(dp101
g11
g12
sg13
Vcmb10
p102
sg15
I400
sg16
g12
sg17
g12
sg18
V/projects/sage/sage-7.5/local/lib/python2.7/site-packages/matplotlib/mpl-data/fonts/ttf/cmb10.ttf
p103
sg20
g21
sbag1
(g8
g3
NtRp104
(dp105
g11
g29
sg13
VBitstream Vera Sans
p106
sg15
I700
sg16
g12
sg17
g12
sg18
V/projects/sage/sage-7.5/local/lib/python2.7/site-packages/matplotlib/mpl-data/fonts/ttf/VeraBI.ttf
p107
sg20
g21
sbag1
(g8
g3
NtRp108
(dp109
g11
g12
sg13
VSTIXNonUnicode
p110
sg15
I700
sg16
g12
sg17
g12
sg18
V/projects/sage/sage-7.5/local/lib/python2.7/site-packages/matplotlib/mpl-data/fonts/ttf/STIXNonUniBol.ttf
p111
sg20
g21
sbag1
(g8
g3
NtRp112
(dp113
g11
g12
sg13
Vcmss10
p114
sg15
I400
sg16
g12
sg17
g12
sg18
V/projects/sage/sage-7.5/local/lib/python2.7/site-packages/matplotlib/mpl-data/fonts/ttf/cmss10.ttf
p115
sg20
g21
sbag1
(g8
g3
NtRp116
(dp117
g11
g12
sg13
Vcmtt10
p118
sg15
I400
sg16
g12
sg17
g12
sg18
V/projects/sage/sage-7.5/local/lib/python2.7/site-packages/matplotlib/mpl-data/fonts/ttf/cmtt10.ttf
p119
sg20
g21
sbag1
(g8
g3
NtRp120
(dp121
g11
g12
sg13
VSTIXSizeThreeSym
p122
sg15
I700
sg16
g12
sg17
g12
sg18
V/projects/sage/sage-7.5/local/lib/python2.7/site-packages/matplotlib/mpl-data/fonts/ttf/STIXSizThreeSymBol.ttf
p123
sg20
g21
sbag1
(g8
g3
NtRp124
(dp125
g11
g29
sg13
VBitstream Vera Sans Mono
p126
sg15
I400
sg16
g12
sg17
g12
sg18
V/projects/sage/sage-7.5/local/lib/python2.7/site-packages/matplotlib/mpl-data/fonts/ttf/VeraMoIt.ttf
p127
sg20
g21
sbag1
(g8
g3
NtRp128
(dp129
g11
g12
sg13
VSTIXSizeTwoSym
p130
sg15
I700
sg16
g12
sg17
g12
sg18
V/projects/sage/sage-7.5/local/lib/python2.7/site-packages/matplotlib/mpl-data/fonts/ttf/STIXSizTwoSymBol.ttf
p131
sg20
g21
sbag1
(g8
g3
NtRp132
(dp133
g11
g12
sg13
Vcmr10
p134
sg15
I400
sg16
g12
sg17
g12
sg18
V/projects/sage/sage-7.5/local/lib/python2.7/site-packages/matplotlib/mpl-data/fonts/ttf/cmr10.ttf
p135
sg20
g21
sbag1
(g8
g3
NtRp136
(dp137
g11
g12
sg13
VBitstream Vera Serif
p138
sg15
I400
sg16
g12
sg17
g12
sg18
V/projects/sage/sage-7.5/local/lib/python2.7/site-packages/matplotlib/mpl-data/fonts/ttf/VeraSe.ttf
p139
sg20
g21
sbag1
(g8
g3
NtRp140
(dp141
g11
g12
sg13
VBitstream Vera Sans Mono
p142
sg15
I400
sg16
g12
sg17
g12
sg18
V/projects/sage/sage-7.5/local/lib/python2.7/site-packages/matplotlib/mpl-data/fonts/ttf/VeraMono.ttf
p143
sg20
g21
sbag1
(g8
g3
NtRp144
(dp145
g11
g12
sg13
Vcmex10
p146
sg15
I400
sg16
g12
sg17
g12
sg18
V/projects/sage/sage-7.5/local/lib/python2.7/site-packages/matplotlib/mpl-data/fonts/ttf/cmex10.ttf
p147
sg20
g21
sbag1
(g8
g3
NtRp148
(dp149
g11
g12
sg13
VSTIXSizeFiveSym
p150
sg15
I400
sg16
g12
sg17
g12
sg18
V/projects/sage/sage-7.5/local/lib/python2.7/site-packages/matplotlib/mpl-data/fonts/ttf/STIXSizFiveSymReg.ttf
p151
sg20
g21
sbag1
(g8
g3
NtRp152
(dp153
g11
g12
sg13
VSTIXNonUnicode
p154
sg15
I400
sg16
g12
sg17
g12
sg18
V/projects/sage/sage-7.5/local/lib/python2.7/site-packages/matplotlib/mpl-data/fonts/ttf/STIXNonUni.ttf
p155
sg20
g21
sbag1
(g8
g3
NtRp156
(dp157
g11
g12
sg13
VLato
p158
sg15
I400
sg16
g12
sg17
g12
sg18
V/usr/share/fonts/truetype/lato/Lato-Hairline.ttf
p159
sg20
g21
sbag1
(g8
g3
NtRp160
(dp161
g11
g12
sg13
VSTIXIntegralsUp
p162
sg15
I400
sg16
g12
sg17
g12
sg18
V/usr/share/fonts/opentype/stix/STIXIntegralsUp-Regular.otf
p163
sg20
g21
sbag1
(g8
g3
NtRp164
(dp165
g11
g12
sg13
VDroid Sans Ethiopic
p166
sg15
I700
sg16
g12
sg17
g12
sg18
V/usr/share/fonts/truetype/droid/DroidSansEthiopic-Bold.ttf
p167
sg20
g21
sbag1
(g8
g3
NtRp168
(dp169
g11
g24
sg13
VLatin Modern Roman
p170
sg15
I500
sg16
g12
sg17
g12
sg18
V/usr/share/texmf/fonts/opentype/public/lm/lmroman8-italic.otf
p171
sg20
g21
sbag1
(g8
g3
NtRp172
(dp173
g11
g12
sg13
VLiberation Sans
p174
sg15
I700
sg16
g12
sg17
g12
sg18
V/usr/share/fonts/truetype/ttf-liberation/LiberationSans-Bold.ttf
p175
sg20
g21
sbag1
(g8
g3
NtRp176
(dp177
g11
g12
sg13
VLatin Modern Mono Caps
p178
sg15
I400
sg16
g12
sg17
g12
sg18
V/usr/share/texmf/fonts/opentype/public/lm/lmmonocaps10-regular.otf
p179
sg20
g21
sbag1
(g8
g3
NtRp180
(dp181
g11
g12
sg13
VGentium
p182
sg15
I400
sg16
g12
sg17
g12
sg18
V/usr/share/fonts/truetype/gentium/GenR102.ttf
p183
sg20
g21
sbag1
(g8
g3
NtRp184
(dp185
g11
g12
sg13
VInconsolata
p186
sg15
I400
sg16
g12
sg17
g12
sg18
V/usr/share/fonts/truetype/inconsolata/Inconsolata.otf
p187
sg20
g21
sbag1
(g8
g3
NtRp188
(dp189
g11
g12
sg13
VGillius ADF Cd
p190
sg15
I400
sg16
g12
sg17
g12
sg18
V/usr/share/fonts/truetype/adf/GilliusADFCd-Regular.otf
p191
sg20
g21
sbag1
(g8
g3
NtRp192
(dp193
g11
g12
sg13
VMathJax_Math
p194
sg15
I400
sg16
g12
sg17
g12
sg18
V/usr/share/fonts/opentype/mathjax/MathJax_Math-Regular.otf
p195
sg20
g21
sbag1
(g8
g3
NtRp196
(dp197
g11
g24
sg13
VGentium Basic
p198
sg15
I400
sg16
g12
sg17
g12
sg18
V/usr/share/fonts/truetype/gentium-basic/GenBasI.ttf
p199
sg20
g21
sbag1
(g8
g3
NtRp200
(dp201
g11
g12
sg13
VEB Garamond
p202
sg15
I400
sg16
g12
sg17
g12
sg18
V/usr/share/fonts/opentype/ebgaramond/EBGaramond08-Regular.otf
p203
sg20
g21
sbag1
(g8
g3
NtRp204
(dp205
g11
g24
sg13
VLatin Modern Roman
p206
sg15
I500
sg16
g12
sg17
g12
sg18
V/usr/share/texmf/fonts/opentype/public/lm/lmroman10-italic.otf
p207
sg20
g21
sbag1
(g8
g3
NtRp208
(dp209
g11
g12
sg13
VJunicode
p210
sg15
I400
sg16
g12
sg17
g12
sg18
V/usr/share/fonts/truetype/junicode/Junicode.ttf
p211
sg20
g21
sbag1
(g8
g3
NtRp212
(dp213
g11
g24
sg13
VGentium Book Basic
p214
sg15
I700
sg16
g12
sg17
g12
sg18
V/usr/share/fonts/truetype/gentium-basic/GenBkBasBI.ttf
p215
sg20
g21
sbag1
(g8
g3
NtRp216
(dp217
g11
g12
sg13
VCabin
p218
sg15
I700
sg16
g12
sg17
g12
sg18
V/usr/share/fonts/opentype/cabin/Cabin-Bold.otf
p219
sg20
g21
sbag1
(g8
g3
NtRp220
(dp221
g11
g12
sg13
VGentium Book Basic
p222
sg15
I400
sg16
g12
sg17
g12
sg18
V/usr/share/fonts/truetype/gentium-basic/GenBkBasR.ttf
p223
sg20
g21
sbag1
(g8
g3
NtRp224
(dp225
g11
g24
sg13
VAmiri
p226
sg15
I700
sg16
g12
sg17
g12
sg18
V/usr/share/fonts/opentype/fonts-hosny-amiri/amiri-boldslanted.ttf
p227
sg20
g21
sbag1
(g8
g3
NtRp228
(dp229
g11
g12
sg13
VLinux Libertine O
p230
sg15
I700
sg16
g12
sg17
g12
sg18
V/usr/share/fonts/opentype/linux-libertine/LinLibertine_RZ.otf
p231
sg20
g21
sbag1
(g8
g3
NtRp232
(dp233
g11
g12
sg13
VAsana Math
p234
sg15
I400
sg16
g12
sg17
g12
sg18
V/usr/share/fonts/truetype/asana-math/Asana-Math.otf
p235
sg20
g21
sbag1
(g8
g3
NtRp236
(dp237
g11
g24
sg13
VMathJax_Main
p238
sg15
I400
sg16
g12
sg17
g12
sg18
V/usr/share/fonts/opentype/mathjax/MathJax_Main-Italic.otf
p239
sg20
g21
sbag1
(g8
g3
NtRp240
(dp241
g11
g12
sg13
VAccanthis ADF Std No2
p242
sg15
I700
sg16
g12
sg17
g12
sg18
V/usr/share/fonts/truetype/adf/AccanthisADFStdNo2-Bold.otf
p243
sg20
g21
sbag1
(g8
g3
NtRp244
(dp245
g11
g24
sg13
VGFS Didot
p246
sg15
I700
sg16
g12
sg17
g12
sg18
V/usr/share/fonts/truetype/didot/GFSDidotBoldItalic.otf
p247
sg20
g21
sbag1
(g8
g3
NtRp248
(dp249
g11
g24
sg13
VTeX Gyre Termes
p250
sg15
I700
sg16
g12
sg17
g12
sg18
V/usr/share/texmf/fonts/opentype/public/tex-gyre/texgyretermes-bolditalic.otf
p251
sg20
g21
sbag1
(g8
g3
NtRp252
(dp253
g11
g12
sg13
VLatin Modern Roman
p254
sg15
I700
sg16
g12
sg17
g12
sg18
V/usr/share/texmf/fonts/opentype/public/lm/lmroman8-bold.otf
p255
sg20
g21
sbag1
(g8
g3
NtRp256
(dp257
g11
g24
sg13
VTeX Gyre Pagella
p258
sg15
I400
sg16
g12
sg17
g12
sg18
V/usr/share/texmf/fonts/opentype/public/tex-gyre/texgyrepagella-italic.otf
p259
sg20
g21
sbag1
(g8
g3
NtRp260
(dp261
g11
g24
sg13
VLato
p262
sg15
I500
sg16
g12
sg17
g12
sg18
V/usr/share/fonts/truetype/lato/Lato-MediumItalic.ttf
p263
sg20
g21
sbag1
(g8
g3
NtRp264
(dp265
g11
g12
sg13
VGFS Olga
p266
sg15
I400
sg16
g12
sg17
g12
sg18
V/usr/share/fonts/truetype/olga/GFSOlga.otf
p267
sg20
g21
sbag1
(g8
g3
NtRp268
(dp269
g11
g12
sg13
VTeX Gyre Schola Math
p270
sg15
I400
sg16
g12
sg17
g12
sg18
V/usr/share/texmf/fonts/opentype/public/tex-gyre-math/texgyreschola-math.otf
p271
sg20
g21
sbag1
(g8
g3
NtRp272
(dp273
g11
g12
sg13
VDejaVu Serif
p274
sg15
I700
sg16
Vcondensed
p275
sg17
g12
sg18
V/usr/share/fonts/truetype/dejavu/DejaVuSerifCondensed-Bold.ttf
p276
sg20
g21
sbag1
(g8
g3
NtRp277
(dp278
g11
g24
sg13
VEB Garamond
p279
sg15
I400
sg16
g12
sg17
g12
sg18
V/usr/share/fonts/opentype/ebgaramond/EBGaramond12-Italic.otf
p280
sg20
g21
sbag1
(g8
g3
NtRp281
(dp282
g11
g12
sg13
VGillius ADF No2 Cd
p283
sg15
I700
sg16
g12
sg17
g12
sg18
V/usr/share/fonts/truetype/adf/GilliusADFNo2Cd-Bold.otf
p284
sg20
g21
sbag1
(g8
g3
NtRp285
(dp286
g11
g12
sg13
VLato
p287
sg15
I500
sg16
g12
sg17
g12
sg18
V/usr/share/fonts/truetype/lato/Lato-Medium.ttf
p288
sg20
g21
sbag1
(g8
g3
NtRp289
(dp290
g11
g12
sg13
VLatin Modern Roman
p291
sg15
I400
sg16
g12
sg17
g12
sg18
V/usr/share/texmf/fonts/opentype/public/lm/lmroman12-regular.otf
p292
sg20
g21
sbag1
(g8
g3
NtRp293
(dp294
g11
g24
sg13
VAmiri
p295
sg15
I400
sg16
g12
sg17
g12
sg18
V/usr/share/fonts/opentype/fonts-hosny-amiri/amiri-slanted.ttf
p296
sg20
g21
sbag1
(g8
g3
NtRp297
(dp298
g11
g12
sg13
VGFS Artemisia
p299
sg15
I700
sg16
g12
sg17
g12
sg18
V/usr/share/fonts/truetype/artemisia/GFSArtemisiaBold.otf
p300
sg20
g21
sbag1
(g8
g3
NtRp301
(dp302
g11
g12
sg13
VGentium Basic
p303
sg15
I400
sg16
g12
sg17
g12
sg18
V/usr/share/fonts/truetype/gentium-basic/GenBasR.ttf
p304
sg20
g21
sbag1
(g8
g3
NtRp305
(dp306
g11
g12
sg13
VDroid Arabic Naskh
p307
sg15
I400
sg16
g12
sg17
g12
sg18
V/usr/share/fonts/truetype/droid/DroidNaskh-Regular.ttf
p308
sg20
g21
sbag1
(g8
g3
NtRp309
(dp310
g11
g24
sg13
VGentium
p311
sg15
I400
sg16
g12
sg17
g12
sg18
V/usr/share/fonts/truetype/gentium/GenI102.ttf
p312
sg20
g21
sbag1
(g8
g3
NtRp313
(dp314
g11
g12
sg13
VComfortaa
p315
sg15
I200
sg16
g12
sg17
g12
sg18
V/usr/share/fonts/truetype/comfortaa/Comfortaa-Light.ttf
p316
sg20
g21
sbag1
(g8
g3
NtRp317
(dp318
g11
g24
sg13
VLiberation Sans
p319
sg15
I400
sg16
g12
sg17
g12
sg18
V/usr/share/fonts/truetype/liberation/LiberationSans-Italic.ttf
p320
sg20
g21
sbag1
(g8
g3
NtRp321
(dp322
g11
g29
sg13
VDejaVu Sans Mono
p323
sg15
I400
sg16
g12
sg17
g12
sg18
V/usr/share/fonts/truetype/dejavu/DejaVuSansMono-Oblique.ttf
p324
sg20
g21
sbag1
(g8
g3
NtRp325
(dp326
g11
g12
sg13
VSTIXIntegralsUp
p327
sg15
I700
sg16
g12
sg17
g12
sg18
V/usr/share/fonts/opentype/stix/STIXIntegralsUp-Bold.otf
p328
sg20
g21
sbag1
(g8
g3
NtRp329
(dp330
g11
g12
sg13
VLatin Modern Roman
p331
sg15
I700
sg16
g12
sg17
g12
sg18
V/usr/share/texmf/fonts/opentype/public/lm/lmroman12-bold.otf
p332
sg20
g21
sbag1
(g8
g3
NtRp333
(dp334
g11
g12
sg13
VTeX Gyre Cursor
p335
sg15
I400
sg16
g12
sg17
g12
sg18
V/usr/share/texmf/fonts/opentype/public/tex-gyre/texgyrecursor-regular.otf
p336
sg20
g21
sbag1
(g8
g3
NtRp337
(dp338
g11
g12
sg13
VFontAwesome
p339
sg15
I400
sg16
g12
sg17
g12
sg18
V/usr/share/fonts/truetype/font-awesome/fontawesome-webfont.ttf
p340
sg20
g21
sbag1
(g8
g3
NtRp341
(dp342
g11
g12
sg13
VDroid Sans Hebrew
p343
sg15
I700
sg16
g12
sg17
g12
sg18
V/usr/share/fonts/truetype/droid/DroidSansHebrew-Bold.ttf
p344
sg20
g21
sbag1
(g8
g3
NtRp345
(dp346
g11
g12
sg13
VCabin
p347
sg15
I500
sg16
g12
sg17
g12
sg18
V/usr/share/fonts/opentype/cabin/Cabin-Medium.otf
p348
sg20
g21
sbag1
(g8
g3
NtRp349
(dp350
g11
g12
sg13
VDroid Arabic Naskh
p351
sg15
I700
sg16
g12
sg17
g12
sg18
V/usr/share/fonts/truetype/droid/DroidNaskh-Bold.ttf
p352
sg20
g21
sbag1
(g8
g3
NtRp353
(dp354
g11
g12
sg13
VLiberation Serif
p355
sg15
I700
sg16
g12
sg17
g12
sg18
V/usr/share/fonts/truetype/ttf-liberation/LiberationSerif-Bold.ttf
p356
sg20
g21
sbag1
(g8
g3
NtRp357
(dp358
g11
g24
sg13
VCabin
p359
sg15
I400
sg16
g12
sg17
g12
sg18
V/usr/share/fonts/opentype/cabin/Cabin-Italic.otf
p360
sg20
g21
sbag1
(g8
g3
NtRp361
(dp362
g11
g12
sg13
VLatin Modern Roman
p363
sg15
I400
sg16
g12
sg17
g12
sg18
V/usr/share/texmf/fonts/opentype/public/lm/lmroman5-regular.otf
p364
sg20
g21
sbag1
(g8
g3
NtRp365
(dp366
g11
g12
sg13
VLatin Modern Roman Slanted
p367
sg15
I400
sg16
g12
sg17
g12
sg18
V/usr/share/texmf/fonts/opentype/public/lm/lmromanslant12-regular.otf
p368
sg20
g21
sbag1
(g8
g3
NtRp369
(dp370
g11
g12
sg13
VFreeSerif
p371
sg15
I700
sg16
g12
sg17
g12
sg18
V/usr/share/fonts/opentype/freefont/FreeSerifBold.otf
p372
sg20
g21
sbag1
(g8
g3
NtRp373
(dp374
g11
g24
sg13
VLatin Modern Mono
p375
sg15
I400
sg16
g12
sg17
g12
sg18
V/usr/share/texmf/fonts/opentype/public/lm/lmmono10-italic.otf
p376
sg20
g21
sbag1
(g8
g3
NtRp377
(dp378
g11
g12
sg13
VFreeSans
p379
sg15
I400
sg16
g12
sg17
g12
sg18
V/usr/share/fonts/opentype/freefont/FreeSans.otf
p380
sg20
g21
sbag1
(g8
g3
NtRp381
(dp382
g11
g24
sg13
VRoboto
p383
sg15
I400
sg16
g12
sg17
g12
sg18
V/usr/share/fonts/truetype/roboto/Roboto-ThinItalic.ttf
p384
sg20
g21
sbag1
(g8
g3
NtRp385
(dp386
g11
g12
sg13
VSTIXSizeThreeSym
p387
sg15
I400
sg16
g12
sg17
g12
sg18
V/usr/share/fonts/opentype/stix/STIXSizeThreeSym-Regular.otf
p388
sg20
g21
sbag1
(g8
g3
NtRp389
(dp390
g11
g29
sg13
VDejaVu Sans Mono
p391
sg15
I700
sg16
g12
sg17
g12
sg18
V/usr/share/fonts/truetype/dejavu/DejaVuSansMono-BoldOblique.ttf
p392
sg20
g21
sbag1
(g8
g3
NtRp393
(dp394
g11
g12
sg13
VFreeSans
p395
sg15
I700
sg16
g12
sg17
g12
sg18
V/usr/share/fonts/truetype/freefont/FreeSansBold.ttf
p396
sg20
g21
sbag1
(g8
g3
NtRp397
(dp398
g11
g12
sg13
VTeX Gyre Heros Cn
p399
sg15
I400
sg16
g12
sg17
g12
sg18
V/usr/share/texmf/fonts/opentype/public/tex-gyre/texgyreheroscn-regular.otf
p400
sg20
g21
sbag1
(g8
g3
NtRp401
(dp402
g11
g12
sg13
VLatin Modern Mono
p403
sg15
I400
sg16
g12
sg17
g12
sg18
V/usr/share/texmf/fonts/opentype/public/lm/lmmono8-regular.otf
p404
sg20
g21
sbag1
(g8
g3
NtRp405
(dp406
g11
g12
sg13
VAccanthis ADF Std No3
p407
sg15
I400
sg16
g12
sg17
g12
sg18
V/usr/share/fonts/truetype/adf/AccanthisADFStdNo3-Regular.otf
p408
sg20
g21
sbag1
(g8
g3
NtRp409
(dp410
g11
g12
sg13
VRoboto
p411
sg15
I400
sg16
g12
sg17
g12
sg18
V/usr/share/fonts/truetype/roboto/Roboto-Regular.ttf
p412
sg20
g21
sbag1
(g8
g3
NtRp413
(dp414
g11
g12
sg13
VDroid Arabic Kufi
p415
sg15
I700
sg16
g12
sg17
g12
sg18
V/usr/share/fonts/truetype/droid/DroidKufi-Bold.ttf
p416
sg20
g21
sbag1
(g8
g3
NtRp417
(dp418
g11
g29
sg13
VLatin Modern Mono Prop
p419
sg15
I400
sg16
g12
sg17
g12
sg18
V/usr/share/texmf/fonts/opentype/public/lm/lmmonoprop10-oblique.otf
p420
sg20
g21
sbag1
(g8
g3
NtRp421
(dp422
g11
g12
sg13
VSTIXSizeOneSym
p423
sg15
I700
sg16
g12
sg17
g12
sg18
V/usr/share/fonts/opentype/stix/STIXSizeOneSym-Bold.otf
p424
sg20
g21
sbag1
(g8
g3
NtRp425
(dp426
g11
g24
sg13
VAccanthis ADF Std No3
p427
sg15
I400
sg16
g12
sg17
g12
sg18
V/usr/share/fonts/truetype/adf/AccanthisADFStdNo3-Italic.otf
p428
sg20
g21
sbag1
(g8
g3
NtRp429
(dp430
g11
g12
sg13
VUniversalis ADF Cd Std
p431
sg15
I400
sg16
g12
sg17
g12
sg18
V/usr/share/fonts/truetype/adf/UniversalisADFCdStd-Regular.otf
p432
sg20
g21
sbag1
(g8
g3
NtRp433
(dp434
g11
g12
sg13
VDroid Sans Mono
p435
sg15
I400
sg16
g12
sg17
g12
sg18
V/usr/share/fonts/truetype/droid/DroidSansMono.ttf
p436
sg20
g21
sbag1
(g8
g3
NtRp437
(dp438
g11
g12
sg13
VFreeSerif
p439
sg15
I400
sg16
g12
sg17
g12
sg18
V/usr/share/fonts/opentype/freefont/FreeSerif.otf
p440
sg20
g21
sbag1
(g8
g3
NtRp441
(dp442
g11
g12
sg13
VSTIXIntegralsSm
p443
sg15
I700
sg16
g12
sg17
g12
sg18
V/usr/share/fonts/opentype/stix/STIXIntegralsSm-Bold.otf
p444
sg20
g21
sbag1
(g8
g3
NtRp445
(dp446
g11
g24
sg13
VLiberation Mono
p447
sg15
I700
sg16
g12
sg17
g12
sg18
V/usr/share/fonts/truetype/liberation/LiberationMono-BoldItalic.ttf
p448
sg20
g21
sbag1
(g8
g3
NtRp449
(dp450
g11
g24
sg13
VRoboto
p451
sg15
I400
sg16
g12
sg17
g12
sg18
V/usr/share/fonts/truetype/roboto/Roboto-Italic.ttf
p452
sg20
g21
sbag1
(g8
g3
NtRp453
(dp454
g11
g12
sg13
VEB Garamond
p455
sg15
I400
sg16
g12
sg17
g12
sg18
V/usr/share/fonts/truetype/ebgaramond/EBGaramond12-Regular.ttf
p456
sg20
g21
sbag1
(g8
g3
NtRp457
(dp458
g11
g12
sg13
VIPAGothic
p459
sg15
I400
sg16
g12
sg17
g12
sg18
V/usr/share/fonts/opentype/ipafont-gothic/ipag.ttf
p460
sg20
g21
sbag1
(g8
g3
NtRp461
(dp462
g11
g12
sg13
VTeX Gyre Bonum
p463
sg15
I700
sg16
g12
sg17
g12
sg18
V/usr/share/texmf/fonts/opentype/public/tex-gyre/texgyrebonum-bold.otf
p464
sg20
g21
sbag1
(g8
g3
NtRp465
(dp466
g11
g12
sg13
VIPAexGothic
p467
sg15
I400
sg16
g12
sg17
g12
sg18
V/usr/share/fonts/truetype/fonts-japanese-gothic.ttf
p468
sg20
g21
sbag1
(g8
g3
NtRp469
(dp470
g11
g24
sg13
VCaladea
p471
sg15
I400
sg16
g12
sg17
g12
sg18
V/usr/share/fonts/truetype/crosextra/Caladea-Italic.ttf
p472
sg20
g21
sbag1
(g8
g3
NtRp473
(dp474
g11
g12
sg13
VDroid Sans Fallback
p475
sg15
I400
sg16
g12
sg17
g12
sg18
V/usr/share/fonts/truetype/droid/DroidSansFallbackFull.ttf
p476
sg20
g21
sbag1
(g8
g3
NtRp477
(dp478
g11
g24
sg13
VDejaVu Serif
p479
sg15
I700
sg16
g12
sg17
g12
sg18
V/usr/share/fonts/truetype/dejavu/DejaVuSerif-BoldItalic.ttf
p480
sg20
g21
sbag1
(g8
g3
NtRp481
(dp482
g11
g12
sg13
VLatin Modern Mono Prop Light
p483
sg15
I700
sg16
g12
sg17
g12
sg18
V/usr/share/texmf/fonts/opentype/public/lm/lmmonoproplt10-bold.otf
p484
sg20
g21
sbag1
(g8
g3
NtRp485
(dp486
g11
g12
sg13
VFreeSans
p487
sg15
I700
sg16
g12
sg17
g12
sg18
V/usr/share/fonts/opentype/freefont/FreeSansBold.otf
p488
sg20
g21
sbag1
(g8
g3
NtRp489
(dp490
g11
g12
sg13
VDejaVu Serif
p491
sg15
I400
sg16
g12
sg17
g12
sg18
V/usr/share/fonts/truetype/dejavu/DejaVuSerif.ttf
p492
sg20
g21
sbag1
(g8
g3
NtRp493
(dp494
g11
g24
sg13
VLatin Modern Roman
p495
sg15
I500
sg16
g12
sg17
g12
sg18
V/usr/share/texmf/fonts/opentype/public/lm/lmroman12-italic.otf
p496
sg20
g21
sbag1
(g8
g3
NtRp497
(dp498
g11
g12
sg13
VTeX Gyre Bonum Math
p499
sg15
I400
sg16
g12
sg17
g12
sg18
V/usr/share/texmf/fonts/opentype/public/tex-gyre-math/texgyrebonum-math.otf
p500
sg20
g21
sbag1
(g8
g3
NtRp501
(dp502
g11
g12
sg13
VLatin Modern Sans
p503
sg15
I400
sg16
g12
sg17
g12
sg18
V/usr/share/texmf/fonts/opentype/public/lm/lmsans12-regular.otf
p504
sg20
g21
sbag1
(g8
g3
NtRp505
(dp506
g11
g12
sg13
VFreeSerif
p507
sg15
I700
sg16
g12
sg17
g12
sg18
V/usr/share/fonts/truetype/freefont/FreeSerifBold.ttf
p508
sg20
g21
sbag1
(g8
g3
NtRp509
(dp510
g11
g12
sg13
VLiberation Serif
p511
sg15
I400
sg16
g12
sg17
g12
sg18
V/usr/share/fonts/truetype/ttf-liberation/LiberationSerif-Regular.ttf
p512
sg20
g21
sbag1
(g8
g3
NtRp513
(dp514
g11
g24
sg13
VLatin Modern Roman
p515
sg15
I500
sg16
g12
sg17
g12
sg18
V/usr/share/texmf/fonts/opentype/public/lm/lmroman7-italic.otf
p516
sg20
g21
sbag1
(g8
g3
NtRp517
(dp518
g11
g12
sg13
VLatin Modern Math
p519
sg15
I400
sg16
g12
sg17
g12
sg18
V/usr/share/texmf/fonts/opentype/public/lm-math/latinmodernmath-regular.otf
p520
sg20
g21
sbag1
(g8
g3
NtRp521
(dp522
g11
g24
sg13
VLatin Modern Roman
p523
sg15
I500
sg16
g12
sg17
g12
sg18
V/usr/share/texmf/fonts/opentype/public/lm/lmroman9-italic.otf
p524
sg20
g21
sbag1
(g8
g3
NtRp525
(dp526
g11
g12
sg13
VMathJax_WinChrome
p527
sg15
I400
sg16
g12
sg17
g12
sg18
V/usr/share/fonts/opentype/mathjax/MathJax_WinChrome-Regular.otf
p528
sg20
g21
sbag1
(g8
g3
NtRp529
(dp530
g11
g12
sg13
VSTIXGeneral
p531
sg15
I400
sg16
g12
sg17
g12
sg18
V/usr/share/fonts/opentype/stix/STIXGeneral-Regular.otf
p532
sg20
g21
sbag1
(g8
g3
NtRp533
(dp534
g11
g12
sg13
VTeX Gyre Termes
p535
sg15
I400
sg16
g12
sg17
g12
sg18
V/usr/share/texmf/fonts/opentype/public/tex-gyre/texgyretermes-regular.otf
p536
sg20
g21
sbag1
(g8
g3
NtRp537
(dp538
g11
g24
sg13
VAccanthis ADF Std No2
p539
sg15
I700
sg16
g12
sg17
g12
sg18
V/usr/share/fonts/truetype/adf/AccanthisADFStdNo2-BoldItalic.otf
p540
sg20
g21
sbag1
(g8
g3
NtRp541
(dp542
g11
g12
sg13
VSTIX
p543
sg15
I400
sg16
g12
sg17
g12
sg18
V/usr/share/fonts/opentype/stix-word/STIX-Regular.otf
p544
sg20
g21
sbag1
(g8
g3
NtRp545
(dp546
g11
g24
sg13
VLobster Two
p547
sg15
I700
sg16
g12
sg17
g12
sg18
V/usr/share/fonts/opentype/lobstertwo/LobsterTwo-BoldItalic.otf
p548
sg20
g21
sbag1
(g8
g3
NtRp549
(dp550
g11
g12
sg13
VGFS Baskerville
p551
sg15
I400
sg16
g12
sg17
g12
sg18
V/usr/share/fonts/truetype/baskerville/GFSBaskerville.otf
p552
sg20
g21
sbag1
(g8
g3
NtRp553
(dp554
g11
g12
sg13
VEB Garamond Initials Fill1
p555
sg15
I400
sg16
g12
sg17
g12
sg18
V/usr/share/fonts/opentype/ebgaramond/EBGaramond-InitialsF1.otf
p556
sg20
g21
sbag1
(g8
g3
NtRp557
(dp558
g11
g12
sg13
VSTIXIntegralsD
p559
sg15
I400
sg16
g12
sg17
g12
sg18
V/usr/share/fonts/opentype/stix/STIXIntegralsD-Regular.otf
p560
sg20
g21
sbag1
(g8
g3
NtRp561
(dp562
g11
g12
sg13
VTeX Gyre Pagella
p563
sg15
I400
sg16
g12
sg17
g12
sg18
V/usr/share/texmf/fonts/opentype/public/tex-gyre/texgyrepagella-regular.otf
p564
sg20
g21
sbag1
(g8
g3
NtRp565
(dp566
g11
g12
sg13
VJunicode
p567
sg15
I700
sg16
g12
sg17
g12
sg18
V/usr/share/fonts/truetype/junicode/Junicode-Bold.ttf
p568
sg20
g21
sbag1
(g8
g3
NtRp569
(dp570
g11
g24
sg13
VGFS Didot
p571
sg15
I400
sg16
g12
sg17
g12
sg18
V/usr/share/fonts/truetype/didot/GFSDidotItalic.otf
p572
sg20
g21
sbag1
(g8
g3
NtRp573
(dp574
g11
g12
sg13
VLatin Modern Mono
p575
sg15
I400
sg16
g12
sg17
g12
sg18
V/usr/share/texmf/fonts/opentype/public/lm/lmmono10-regular.otf
p576
sg20
g21
sbag1
(g8
g3
NtRp577
(dp578
g11
g12
sg13
VLatin Modern Roman Caps
p579
sg15
I400
sg16
g12
sg17
g12
sg18
V/usr/share/texmf/fonts/opentype/public/lm/lmromancaps10-regular.otf
p580
sg20
g21
sbag1
(g8
g3
NtRp581
(dp582
g11
g12
sg13
VEB Garamond Initials Fill1
p583
sg15
I400
sg16
g12
sg17
g12
sg18
V/usr/share/fonts/truetype/ebgaramond/EBGaramond-InitialsF1.ttf
p584
sg20
g21
sbag1
(g8
g3
NtRp585
(dp586
g11
g12
sg13
VSTIXSizeOneSym
p587
sg15
I400
sg16
g12
sg17
g12
sg18
V/usr/share/fonts/opentype/stix/STIXSizeOneSym-Regular.otf
p588
sg20
g21
sbag1
(g8
g3
NtRp589
(dp590
g11
g12
sg13
VSTIX Math
p591
sg15
I400
sg16
g12
sg17
g12
sg18
V/usr/share/fonts/opentype/stix-word/STIXMath-Regular.otf
p592
sg20
g21
sbag1
(g8
g3
NtRp593
(dp594
g11
g12
sg13
VRoboto Condensed
p595
sg15
I400
sg16
g275
sg17
g12
sg18
V/usr/share/fonts/truetype/roboto/RobotoCondensed-Regular.ttf
p596
sg20
g21
sbag1
(g8
g3
NtRp597
(dp598
g11
g12
sg13
Vstmary10
p599
sg15
I400
sg16
g12
sg17
g12
sg18
V/usr/share/fonts/truetype/lyx/stmary10.ttf
p600
sg20
g21
sbag1
(g8
g3
NtRp601
(dp602
g11
g12
sg13
VGillius ADF No2 Cd
p603
sg15
I400
sg16
g12
sg17
g12
sg18
V/usr/share/fonts/truetype/adf/GilliusADFNo2Cd-Regular.otf
p604
sg20
g21
sbag1
(g8
g3
NtRp605
(dp606
g11
g12
sg13
VOCRA
p607
sg15
I400
sg16
g12
sg17
g12
sg18
V/usr/share/fonts/truetype/ocr-a/OCRA.ttf
p608
sg20
g21
sbag1
(g8
g3
NtRp609
(dp610
g11
g24
sg13
VSTIX
p611
sg15
I400
sg16
g12
sg17
g12
sg18
V/usr/share/fonts/opentype/stix-word/STIX-Italic.otf
p612
sg20
g21
sbag1
(g8
g3
NtRp613
(dp614
g11
g12
sg13
VLatin Modern Sans Demi Cond
p615
sg15
I600
sg16
g275
sg17
g12
sg18
V/usr/share/texmf/fonts/opentype/public/lm/lmsansdemicond10-regular.otf
p616
sg20
g21
sbag1
(g8
g3
NtRp617
(dp618
g11
g12
sg13
VDejaVu Sans
p619
sg15
I700
sg16
g275
sg17
g12
sg18
V/usr/share/fonts/truetype/dejavu/DejaVuSansCondensed-Bold.ttf
p620
sg20
g21
sbag1
(g8
g3
NtRp621
(dp622
g11
g24
sg13
VGFS Neohellenic
p623
sg15
I700
sg16
g12
sg17
g12
sg18
V/usr/share/fonts/truetype/neohellenic/GFSNeohellenicBoldIt.otf
p624
sg20
g21
sbag1
(g8
g3
NtRp625
(dp626
g11
g24
sg13
VGillius ADF
p627
sg15
I400
sg16
g12
sg17
g12
sg18
V/usr/share/fonts/truetype/adf/GilliusADF-Italic.otf
p628
sg20
g21
sbag1
(g8
g3
NtRp629
(dp630
g11
g12
sg13
VTeX Gyre Heros Cn
p631
sg15
I700
sg16
g12
sg17
g12
sg18
V/usr/share/texmf/fonts/opentype/public/tex-gyre/texgyreheroscn-bold.otf
p632
sg20
g21
sbag1
(g8
g3
NtRp633
(dp634
g11
g12
sg13
VAmiri
p635
sg15
I700
sg16
g12
sg17
g12
sg18
V/usr/share/fonts/opentype/fonts-hosny-amiri/amiri-bold.ttf
p636
sg20
g21
sbag1
(g8
g3
NtRp637
(dp638
g11
g12
sg13
VRoboto
p639
sg15
I700
sg16
g12
sg17
g12
sg18
V/usr/share/fonts/truetype/roboto/Roboto-Bold.ttf
p640
sg20
g21
sbag1
(g8
g3
NtRp641
(dp642
g11
g12
sg13
VUniversalis ADF Cd Std
p643
sg15
I700
sg16
g12
sg17
g12
sg18
V/usr/share/fonts/truetype/adf/UniversalisADFCdStd-Bold.otf
p644
sg20
g21
sbag1
(g8
g3
NtRp645
(dp646
g11
g12
sg13
VGFS Artemisia
p647
sg15
I400
sg16
g12
sg17
g12
sg18
V/usr/share/fonts/truetype/artemisia/GFSArtemisia.otf
p648
sg20
g21
sbag1
(g8
g3
NtRp649
(dp650
g11
g12
sg13
VRoboto Condensed
p651
sg15
I700
sg16
g275
sg17
g12
sg18
V/usr/share/fonts/truetype/roboto/RobotoCondensed-Bold.ttf
p652
sg20
g21
sbag1
(g8
g3
NtRp653
(dp654
g11
g24
sg13
VLinux Libertine O
p655
sg15
I700
sg16
g12
sg17
g12
sg18
V/usr/share/fonts/opentype/linux-libertine/LinLibertine_RZI.otf
p656
sg20
g21
sbag1
(g8
g3
NtRp657
(dp658
g11
g12
sg13
VMathJax_Script
p659
sg15
I400
sg16
g12
sg17
g12
sg18
V/usr/share/fonts/opentype/mathjax/MathJax_Script-Regular.otf
p660
sg20
g21
sbag1
(g8
g3
NtRp661
(dp662
g11
g12
sg13
VDroid Sans Armenian
p663
sg15
I400
sg16
g12
sg17
g12
sg18
V/usr/share/fonts/truetype/droid/DroidSansArmenian.ttf
p664
sg20
g21
sbag1
(g8
g3
NtRp665
(dp666
g11
g12
sg13
VLinux Libertine O
p667
sg15
I400
sg16
g12
sg17
g12
sg18
V/usr/share/fonts/opentype/linux-libertine/LinLibertine_R.otf
p668
sg20
g21
sbag1
(g8
g3
NtRp669
(dp670
g11
g12
sg13
VDejaVu Sans Mono
p671
sg15
I700
sg16
g12
sg17
g12
sg18
V/usr/share/fonts/truetype/dejavu/DejaVuSansMono-Bold.ttf
p672
sg20
g21
sbag1
(g8
g3
NtRp673
(dp674
g11
g12
sg13
VLato
p675
sg15
I400
sg16
g12
sg17
g12
sg18
V/usr/share/fonts/truetype/lato/Lato-Regular.ttf
p676
sg20
g21
sbag1
(g8
g3
NtRp677
(dp678
g11
g29
sg13
VDejaVu Sans
p679
sg15
I400
sg16
g275
sg17
g12
sg18
V/usr/share/fonts/truetype/dejavu/DejaVuSansCondensed-Oblique.ttf
p680
sg20
g21
sbag1
(g8
g3
NtRp681
(dp682
g11
g12
sg13
VEB Garamond Initials
p683
sg15
I400
sg16
g12
sg17
g12
sg18
V/usr/share/fonts/opentype/ebgaramond/EBGaramond-Initials.otf
p684
sg20
g21
sbag1
(g8
g3
NtRp685
(dp686
g11
g24
sg13
VJunicode
p687
sg15
I700
sg16
g12
sg17
g12
sg18
V/usr/share/fonts/truetype/junicode/Junicode-BoldItalic.ttf
p688
sg20
g21
sbag1
(g8
g3
NtRp689
(dp690
g11
g12
sg13
VMathJax_Size4
p691
sg15
I400
sg16
g12
sg17
g12
sg18
V/usr/share/fonts/opentype/mathjax/MathJax_Size4-Regular.otf
p692
sg20
g21
sbag1
(g8
g3
NtRp693
(dp694
g11
g24
sg13
VTeX Gyre Bonum
p695
sg15
I700
sg16
g12
sg17
g12
sg18
V/usr/share/texmf/fonts/opentype/public/tex-gyre/texgyrebonum-bolditalic.otf
p696
sg20
g21
sbag1
(g8
g3
NtRp697
(dp698
g11
g24
sg13
VLato
p699
sg15
I800
sg16
g12
sg17
g12
sg18
V/usr/share/fonts/truetype/lato/Lato-HeavyItalic.ttf
p700
sg20
g21
sbag1
(g8
g3
NtRp701
(dp702
g11
g24
sg13
VLiberation Mono
p703
sg15
I400
sg16
g12
sg17
g12
sg18
V/usr/share/fonts/truetype/liberation/LiberationMono-Italic.ttf
p704
sg20
g21
sbag1
(g8
g3
NtRp705
(dp706
g11
g12
sg13
VDroid Naskh Shift Alt
p707
sg15
I400
sg16
g12
sg17
g12
sg18
V/usr/share/fonts/truetype/droid/DroidNaskhUI-Regular.ttf
p708
sg20
g21
sbag1
(g8
g3
NtRp709
(dp710
g11
g24
sg13
VLiberation Serif
p711
sg15
I700
sg16
g12
sg17
g12
sg18
V/usr/share/fonts/truetype/liberation/LiberationSerif-BoldItalic.ttf
p712
sg20
g21
sbag1
(g8
g3
NtRp713
(dp714
g11
g12
sg13
VMathJax_Main
p715
sg15
I400
sg16
g12
sg17
g12
sg18
V/usr/share/fonts/opentype/mathjax/MathJax_Main-Regular.otf
p716
sg20
g21
sbag1
(g8
g3
NtRp717
(dp718
g11
g12
sg13
VLatin Modern Roman Slanted
p719
sg15
I400
sg16
g12
sg17
g12
sg18
V/usr/share/texmf/fonts/opentype/public/lm/lmromanslant8-regular.otf
p720
sg20
g21
sbag1
(g8
g3
NtRp721
(dp722
g11
g24
sg13
VSTIXGeneral
p723
sg15
I700
sg16
g12
sg17
g12
sg18
V/usr/share/fonts/opentype/stix/STIXGeneral-BoldItalic.otf
p724
sg20
g21
sbag1
(g8
g3
NtRp725
(dp726
g11
g12
sg13
VUniversalis ADF Std
p727
sg15
I700
sg16
g12
sg17
g12
sg18
V/usr/share/fonts/truetype/adf/UniversalisADFStd-Bold.otf
p728
sg20
g21
sbag1
(g8
g3
NtRp729
(dp730
g11
g24
sg13
VLato
p731
sg15
I700
sg16
g12
sg17
g12
sg18
V/usr/share/fonts/truetype/lato/Lato-BoldItalic.ttf
p732
sg20
g21
sbag1
(g8
g3
NtRp733
(dp734
g11
g29
sg13
VLatin Modern Mono Light
p735
sg15
I700
sg16
g12
sg17
g12
sg18
V/usr/share/texmf/fonts/opentype/public/lm/lmmonolt10-boldoblique.otf
p736
sg20
g21
sbag1
(g8
g3
NtRp737
(dp738
g11
g12
sg13
VDejaVu Serif
p739
sg15
I400
sg16
g275
sg17
g12
sg18
V/usr/share/fonts/truetype/dejavu/DejaVuSerifCondensed.ttf
p740
sg20
g21
sbag1
(g8
g3
NtRp741
(dp742
g11
g12
sg13
VLinux Biolinum O
p743
sg15
I700
sg16
g12
sg17
g12
sg18
V/usr/share/fonts/opentype/linux-libertine/LinBiolinum_RB.otf
p744
sg20
g21
sbag1
(g8
g3
NtRp745
(dp746
g11
g24
sg13
VLiberation Serif
p747
sg15
I400
sg16
g12
sg17
g12
sg18
V/usr/share/fonts/truetype/ttf-liberation/LiberationSerif-Italic.ttf
p748
sg20
g21
sbag1
(g8
g3
NtRp749
(dp750
g11
g12
sg13
VLatin Modern Roman
p751
sg15
I700
sg16
g12
sg17
g12
sg18
V/usr/share/texmf/fonts/opentype/public/lm/lmroman6-bold.otf
p752
sg20
g21
sbag1
(g8
g3
NtRp753
(dp754
g11
g24
sg13
VTeX Gyre Termes
p755
sg15
I400
sg16
g12
sg17
g12
sg18
V/usr/share/texmf/fonts/opentype/public/tex-gyre/texgyretermes-italic.otf
p756
sg20
g21
sbag1
(g8
g3
NtRp757
(dp758
g11
g12
sg13
VEB Garamond
p759
sg15
I400
sg16
g12
sg17
g12
sg18
V/usr/share/fonts/truetype/ebgaramond/EBGaramond08-Regular.ttf
p760
sg20
g21
sbag1
(g8
g3
NtRp761
(dp762
g11
g29
sg13
VFreeMono
p763
sg15
I700
sg16
g12
sg17
g12
sg18
V/usr/share/fonts/opentype/freefont/FreeMonoBoldOblique.otf
p764
sg20
g21
sbag1
(g8
g3
NtRp765
(dp766
g11
g12
sg13
VLatin Modern Mono Prop
p767
sg15
I400
sg16
g12
sg17
g12
sg18
V/usr/share/texmf/fonts/opentype/public/lm/lmmonoprop10-regular.otf
p768
sg20
g21
sbag1
(g8
g3
NtRp769
(dp770
g11
g24
sg13
VTeX Gyre Heros
p771
sg15
I400
sg16
g12
sg17
g12
sg18
V/usr/share/texmf/fonts/opentype/public/tex-gyre/texgyreheros-italic.otf
p772
sg20
g21
sbag1
(g8
g3
NtRp773
(dp774
g11
g24
sg13
VTeX Gyre Heros Cn
p775
sg15
I700
sg16
g12
sg17
g12
sg18
V/usr/share/texmf/fonts/opentype/public/tex-gyre/texgyreheroscn-bolditalic.otf
p776
sg20
g21
sbag1
(g8
g3
NtRp777
(dp778
g11
g24
sg13
VTeX Gyre Schola
p779
sg15
I700
sg16
g12
sg17
g12
sg18
V/usr/share/texmf/fonts/opentype/public/tex-gyre/texgyreschola-bolditalic.otf
p780
sg20
g21
sbag1
(g8
g3
NtRp781
(dp782
g11
g12
sg13
VLatin Modern Sans Quotation
p783
sg15
I700
sg16
g12
sg17
g12
sg18
V/usr/share/texmf/fonts/opentype/public/lm/lmsansquot8-bold.otf
p784
sg20
g21
sbag1
(g8
g3
NtRp785
(dp786
g11
g12
sg13
VGillius ADF
p787
sg15
I700
sg16
g12
sg17
g12
sg18
V/usr/share/fonts/truetype/adf/GilliusADF-Bold.otf
p788
sg20
g21
sbag1
(g8
g3
NtRp789
(dp790
g11
g12
sg13
VLatin Modern Roman Slanted
p791
sg15
I400
sg16
g12
sg17
g12
sg18
V/usr/share/texmf/fonts/opentype/public/lm/lmromanslant9-regular.otf
p792
sg20
g21
sbag1
(g8
g3
NtRp793
(dp794
g11
g12
sg13
VLatin Modern Mono Slanted
p795
sg15
I400
sg16
g12
sg17
g12
sg18
V/usr/share/texmf/fonts/opentype/public/lm/lmmonoslant10-regular.otf
p796
sg20
g21
sbag1
(g8
g3
NtRp797
(dp798
g11
g29
sg13
VLatin Modern Sans Quotation
p799
sg15
I700
sg16
g12
sg17
g12
sg18
V/usr/share/texmf/fonts/opentype/public/lm/lmsansquot8-boldoblique.otf
p800
sg20
g21
sbag1
(g8
g3
NtRp801
(dp802
g11
g24
sg13
VGillius ADF No2 Cd
p803
sg15
I400
sg16
g12
sg17
g12
sg18
V/usr/share/fonts/truetype/adf/GilliusADFNo2Cd-Italic.otf
p804
sg20
g21
sbag1
(g8
g3
NtRp805
(dp806
g11
g12
sg13
VFreeMono
p807
sg15
I700
sg16
g12
sg17
g12
sg18
V/usr/share/fonts/truetype/freefont/FreeMonoBold.ttf
p808
sg20
g21
sbag1
(g8
g3
NtRp809
(dp810
g11
g12
sg13
VAccanthis ADF Std
p811
sg15
I400
sg16
g12
sg17
g12
sg18
V/usr/share/fonts/truetype/adf/AccanthisADFStd-Regular.otf
p812
sg20
g21
sbag1
(g8
g3
NtRp813
(dp814
g11
g12
sg13
VLato
p815
sg15
I400
sg16
g12
sg17
g12
sg18
V/usr/share/fonts/truetype/lato/Lato-Thin.ttf
p816
sg20
g21
sbag1
(g8
g3
NtRp817
(dp818
g11
g24
sg13
VDroid Serif
p819
sg15
I700
sg16
g12
sg17
g12
sg18
V/usr/share/fonts/truetype/droid/DroidSerif-BoldItalic.ttf
p820
sg20
g21
sbag1
(g8
g3
NtRp821
(dp822
g11
g12
sg13
VTeX Gyre Heros
p823
sg15
I700
sg16
g12
sg17
g12
sg18
V/usr/share/texmf/fonts/opentype/public/tex-gyre/texgyreheros-bold.otf
p824
sg20
g21
sbag1
(g8
g3
NtRp825
(dp826
g11
g12
sg13
Vwasy10
p827
sg15
I400
sg16
g12
sg17
g12
sg18
V/usr/share/fonts/truetype/lyx/wasy10.ttf
p828
sg20
g21
sbag1
(g8
g3
NtRp829
(dp830
g11
g12
sg13
VGFS Porson
p831
sg15
I400
sg16
g12
sg17
g12
sg18
V/usr/share/fonts/truetype/porson/GFSPorson.otf
p832
sg20
g21
sbag1
(g8
g3
NtRp833
(dp834
g11
g12
sg13
VGFS Neohellenic
p835
sg15
I700
sg16
g12
sg17
g12
sg18
V/usr/share/fonts/truetype/neohellenic/GFSNeohellenicBold.otf
p836
sg20
g21
sbag1
(g8
g3
NtRp837
(dp838
g11
g12
sg13
VComfortaa
p839
sg15
I400
sg16
g12
sg17
g12
sg18
V/usr/share/fonts/truetype/comfortaa/Comfortaa-Regular.ttf
p840
sg20
g21
sbag1
(g8
g3
NtRp841
(dp842
g11
g12
sg13
VDejaVu Sans
p843
sg15
I400
sg16
g275
sg17
g12
sg18
V/usr/share/fonts/truetype/dejavu/DejaVuSansCondensed.ttf
p844
sg20
g21
sbag1
(g8
g3
NtRp845
(dp846
g11
g24
sg13
VSTIXNonUnicode
p847
sg15
I400
sg16
g12
sg17
g12
sg18
V/usr/share/fonts/opentype/stix/STIXNonUnicode-Italic.otf
p848
sg20
g21
sbag1
(g8
g3
NtRp849
(dp850
g11
g12
sg13
VComfortaa
p851
sg15
I700
sg16
g12
sg17
g12
sg18
V/usr/share/fonts/truetype/comfortaa/Comfortaa-Bold.ttf
p852
sg20
g21
sbag1
(g8
g3
NtRp853
(dp854
g11
g29
sg13
VDejaVu Sans
p855
sg15
I700
sg16
g275
sg17
g12
sg18
V/usr/share/fonts/truetype/dejavu/DejaVuSansCondensed-BoldOblique.ttf
p856
sg20
g21
sbag1
(g8
g3
NtRp857
(dp858
g11
g24
sg13
VGentiumAlt
p859
sg15
I400
sg16
g12
sg17
g12
sg18
V/usr/share/fonts/truetype/gentium/GenAI102.ttf
p860
sg20
g21
sbag1
(g8
g3
NtRp861
(dp862
g11
g12
sg13
VLatin Modern Roman
p863
sg15
I400
sg16
g12
sg17
g12
sg18
V/usr/share/texmf/fonts/opentype/public/lm/lmroman8-regular.otf
p864
sg20
g21
sbag1
(g8
g3
NtRp865
(dp866
g11
g24
sg13
VEB Garamond
p867
sg15
I400
sg16
g12
sg17
g12
sg18
V/usr/share/fonts/opentype/ebgaramond/EBGaramond08-Italic.otf
p868
sg20
g21
sbag1
(g8
g3
NtRp869
(dp870
g11
g12
sg13
VDroid Sans Arabic
p871
sg15
I400
sg16
g12
sg17
g12
sg18
V/usr/share/fonts/truetype/droid/DroidSansArabic.ttf
p872
sg20
g21
sbag1
(g8
g3
NtRp873
(dp874
g11
g29
sg13
VFreeSans
p875
sg15
I700
sg16
g12
sg17
g12
sg18
V/usr/share/fonts/truetype/freefont/FreeSansBoldOblique.ttf
p876
sg20
g21
sbag1
(g8
g3
NtRp877
(dp878
g11
g29
sg13
VLatin Modern Sans
p879
sg15
I400
sg16
g12
sg17
g12
sg18
V/usr/share/texmf/fonts/opentype/public/lm/lmsans12-oblique.otf
p880
sg20
g21
sbag1
(g8
g3
NtRp881
(dp882
g11
g24
sg13
VLato
p883
sg15
I400
sg16
g12
sg17
g12
sg18
V/usr/share/fonts/truetype/lato/Lato-HairlineItalic.ttf
p884
sg20
g21
sbag1
(g8
g3
NtRp885
(dp886
g11
g12
sg13
VSTIXNonUnicode
p887
sg15
I400
sg16
g12
sg17
g12
sg18
V/usr/share/fonts/opentype/stix/STIXNonUnicode-Regular.otf
p888
sg20
g21
sbag1
(g8
g3
NtRp889
(dp890
g11
g12
sg13
VLato
p891
sg15
I700
sg16
g12
sg17
g12
sg18
V/usr/share/fonts/truetype/lato/Lato-Bold.ttf
p892
sg20
g21
sbag1
(g8
g3
NtRp893
(dp894
g11
g12
sg13
VCabin
p895
sg15
I400
sg16
g12
sg17
g12
sg18
V/usr/share/fonts/opentype/cabin/Cabin-Regular.otf
p896
sg20
g21
sbag1
(g8
g3
NtRp897
(dp898
g11
g12
sg13
VFreeSans
p899
sg15
I400
sg16
g12
sg17
g12
sg18
V/usr/share/fonts/truetype/freefont/FreeSans.ttf
p900
sg20
g21
sbag1
(g8
g3
NtRp901
(dp902
g11
g12
sg13
VDejaVu Serif
p903
sg15
I700
sg16
g12
sg17
g12
sg18
V/usr/share/fonts/truetype/dejavu/DejaVuSerif-Bold.ttf
p904
sg20
g21
sbag1
(g8
g3
NtRp905
(dp906
g11
g24
sg13
VOCRAItalic
p907
sg15
I400
sg16
g12
sg17
g12
sg18
V/usr/share/fonts/truetype/ocr-a/OCRAItalic.ttf
p908
sg20
g21
sbag1
(g8
g3
NtRp909
(dp910
g11
g24
sg13
VTeX Gyre Adventor
p911
sg15
I700
sg16
g12
sg17
g12
sg18
V/usr/share/texmf/fonts/opentype/public/tex-gyre/texgyreadventor-bolditalic.otf
p912
sg20
g21
sbag1
(g8
g3
NtRp913
(dp914
g11
g24
sg13
VRoboto
p915
sg15
I200
sg16
g12
sg17
g12
sg18
V/usr/share/fonts/truetype/roboto/Roboto-LightItalic.ttf
p916
sg20
g21
sbag1
(g8
g3
NtRp917
(dp918
g11
g12
sg13
VDroid Sans Ethiopic
p919
sg15
I400
sg16
g12
sg17
g12
sg18
V/usr/share/fonts/truetype/droid/DroidSansEthiopic-Regular.ttf
p920
sg20
g21
sbag1
(g8
g3
NtRp921
(dp922
g11
g24
sg13
VGFS Didot
p923
sg15
I700
sg16
g12
sg17
g12
sg18
V/usr/share/fonts/truetype/artemisia/GFSArtemisiaBoldIt.otf
p924
sg20
g21
sbag1
(g8
g3
NtRp925
(dp926
g11
g12
sg13
VSTIX
p927
sg15
I700
sg16
g12
sg17
g12
sg18
V/usr/share/fonts/opentype/stix-word/STIX-Bold.otf
p928
sg20
g21
sbag1
(g8
g3
NtRp929
(dp930
g11
g12
sg13
VTeX Gyre Heros
p931
sg15
I400
sg16
g12
sg17
g12
sg18
V/usr/share/texmf/fonts/opentype/public/tex-gyre/texgyreheros-regular.otf
p932
sg20
g21
sbag1
(g8
g3
NtRp933
(dp934
g11
g24
sg13
VGentium Basic
p935
sg15
I700
sg16
g12
sg17
g12
sg18
V/usr/share/fonts/truetype/gentium-basic/GenBasBI.ttf
p936
sg20
g21
sbag1
(g8
g3
NtRp937
(dp938
g11
g12
sg13
VDejaVu Sans
p939
sg15
I400
sg16
g12
sg17
g12
sg18
V/usr/share/fonts/truetype/dejavu/DejaVuSans.ttf
p940
sg20
g21
sbag1
(g8
g3
NtRp941
(dp942
g11
g12
sg13
VOCRACondensed
p943
sg15
I400
sg16
g275
sg17
g12
sg18
V/usr/share/fonts/truetype/ocr-a/OCRACondensed.ttf
p944
sg20
g21
sbag1
(g8
g3
NtRp945
(dp946
g11
g12
sg13
VLinux Biolinum Keyboard O
p947
sg15
I400
sg16
g12
sg17
g12
sg18
V/usr/share/fonts/opentype/linux-libertine/LinBiolinum_K.otf
p948
sg20
g21
sbag1
(g8
g3
NtRp949
(dp950
g11
g12
sg13
VIPAMincho
p951
sg15
I400
sg16
g12
sg17
g12
sg18
V/usr/share/fonts/opentype/ipafont-mincho/ipam.ttf
p952
sg20
g21
sbag1
(g8
g3
NtRp953
(dp954
g11
g29
sg13
VFreeMono
p955
sg15
I400
sg16
g12
sg17
g12
sg18
V/usr/share/fonts/truetype/freefont/FreeMonoOblique.ttf
p956
sg20
g21
sbag1
(g8
g3
NtRp957
(dp958
g11
g12
sg13
VMathJax_Size1
p959
sg15
I400
sg16
g12
sg17
g12
sg18
V/usr/share/fonts/opentype/mathjax/MathJax_Size1-Regular.otf
p960
sg20
g21
sbag1
(g8
g3
NtRp961
(dp962
g11
g24
sg13
VSTIXNonUnicode
p963
sg15
I700
sg16
g12
sg17
g12
sg18
V/usr/share/fonts/opentype/stix/STIXNonUnicode-BoldItalic.otf
p964
sg20
g21
sbag1
(g8
g3
NtRp965
(dp966
g11
g12
sg13
VLatin Modern Roman Slanted
p967
sg15
I700
sg16
g12
sg17
g12
sg18
V/usr/share/texmf/fonts/opentype/public/lm/lmromanslant10-bold.otf
p968
sg20
g21
sbag1
(g8
g3
NtRp969
(dp970
g11
g12
sg13
VGillius ADF
p971
sg15
I400
sg16
g12
sg17
g12
sg18
V/usr/share/fonts/truetype/adf/GilliusADF-Regular.otf
p972
sg20
g21
sbag1
(g8
g3
NtRp973
(dp974
g11
g12
sg13
VLiberation Sans Narrow
p975
sg15
I400
sg16
g275
sg17
g12
sg18
V/usr/share/fonts/truetype/liberation/LiberationSansNarrow-Regular.ttf
p976
sg20
g21
sbag1
(g8
g3
NtRp977
(dp978
g11
g24
sg13
VLato
p979
sg15
I200
sg16
g12
sg17
g12
sg18
V/usr/share/fonts/truetype/lato/Lato-LightItalic.ttf
p980
sg20
g21
sbag1
(g8
g3
NtRp981
(dp982
g11
g12
sg13
VSTIXVariants
p983
sg15
I700
sg16
g12
sg17
g12
sg18
V/usr/share/fonts/opentype/stix/STIXVariants-Bold.otf
p984
sg20
g21
sbag1
(g8
g3
NtRp985
(dp986
g11
g29
sg13
VLatin Modern Sans Quotation
p987
sg15
I700
sg16
g12
sg17
g12
sg18
V/usr/share/texmf/fonts/opentype/public/lm/lmsansquot8-oblique.otf
p988
sg20
g21
sbag1
(g8
g3
NtRp989
(dp990
g11
g24
sg13
VLato
p991
sg15
I400
sg16
g12
sg17
g12
sg18
V/usr/share/fonts/truetype/lato/Lato-ThinItalic.ttf
p992
sg20
g21
sbag1
(g8
g3
NtRp993
(dp994
g11
g24
sg13
VLatin Modern Roman
p995
sg15
I700
sg16
g12
sg17
g12
sg18
V/usr/share/texmf/fonts/opentype/public/lm/lmroman10-bolditalic.otf
p996
sg20
g21
sbag1
(g8
g3
NtRp997
(dp998
g11
g12
sg13
VSTIXIntegralsD
p999
sg15
I700
sg16
g12
sg17
g12
sg18
V/usr/share/fonts/opentype/stix/STIXIntegralsD-Bold.otf
p1000
sg20
g21
sbag1
(g8
g3
NtRp1001
(dp1002
g11
g12
sg13
VRoboto
p1003
sg15
I200
sg16
g12
sg17
g12
sg18
V/usr/share/fonts/truetype/roboto/Roboto-Light.ttf
p1004
sg20
g21
sbag1
(g8
g3
NtRp1005
(dp1006
g11
g24
sg13
VTeX Gyre Adventor
p1007
sg15
I400
sg16
g12
sg17
g12
sg18
V/usr/share/texmf/fonts/opentype/public/tex-gyre/texgyreadventor-italic.otf
p1008
sg20
g21
sbag1
(g8
g3
NtRp1009
(dp1010
g11
g24
sg13
VMathJax_Math
p1011
sg15
I400
sg16
g12
sg17
g12
sg18
V/usr/share/fonts/opentype/mathjax/MathJax_Math-Italic.otf
p1012
sg20
g21
sbag1
(g8
g3
NtRp1013
(dp1014
g11
g12
sg13
VGFS BodoniClassic
p1015
sg15
I400
sg16
g12
sg17
g12
sg18
V/usr/share/fonts/truetype/bodoni-classic/GFSBodoniClassic.otf
p1016
sg20
g21
sbag1
(g8
g3
NtRp1017
(dp1018
g11
g24
sg13
VLato
p1019
sg15
I900
sg16
g12
sg17
g12
sg18
V/usr/share/fonts/truetype/lato/Lato-BlackItalic.ttf
p1020
sg20
g21
sbag1
(g8
g3
NtRp1021
(dp1022
g11
g12
sg13
VFreeMono
p1023
sg15
I400
sg16
g12
sg17
g12
sg18
V/usr/share/fonts/truetype/freefont/FreeMono.ttf
p1024
sg20
g21
sbag1
(g8
g3
NtRp1025
(dp1026
g11
g12
sg13
VLatin Modern Mono
p1027
sg15
I400
sg16
g12
sg17
g12
sg18
V/usr/share/texmf/fonts/opentype/public/lm/lmmono9-regular.otf
p1028
sg20
g21
sbag1
(g8
g3
NtRp1029
(dp1030
g11
g24
sg13
VGillius ADF No2 Cd
p1031
sg15
I700
sg16
g12
sg17
g12
sg18
V/usr/share/fonts/truetype/adf/GilliusADFNo2Cd-BoldItalic.otf
p1032
sg20
g21
sbag1
(g8
g3
NtRp1033
(dp1034
g11
g12
sg13
VSTIXIntegralsUpSm
p1035
sg15
I700
sg16
g12
sg17
g12
sg18
V/usr/share/fonts/opentype/stix/STIXIntegralsUpSm-Bold.otf
p1036
sg20
g21
sbag1
(g8
g3
NtRp1037
(dp1038
g11
g12
sg13
VLatin Modern Roman
p1039
sg15
I700
sg16
g12
sg17
g12
sg18
V/usr/share/texmf/fonts/opentype/public/lm/lmroman10-bold.otf
p1040
sg20
g21
sbag1
(g8
g3
NtRp1041
(dp1042
g11
g12
sg13
VLinux Libertine Initials O
p1043
sg15
I400
sg16
g12
sg17
g12
sg18
V/usr/share/fonts/opentype/linux-libertine/LinLibertine_I.otf
p1044
sg20
g21
sbag1
(g8
g3
NtRp1045
(dp1046
g11
g12
sg13
VLiberation Sans
p1047
sg15
I400
sg16
g12
sg17
g12
sg18
V/usr/share/fonts/truetype/ttf-liberation/LiberationSans-Regular.ttf
p1048
sg20
g21
sbag1
(g8
g3
NtRp1049
(dp1050
g11
g24
sg13
VGillius ADF No2
p1051
sg15
I700
sg16
g12
sg17
g12
sg18
V/usr/share/fonts/truetype/adf/GilliusADFNo2-BoldItalic.otf
p1052
sg20
g21
sbag1
(g8
g3
NtRp1053
(dp1054
g11
g12
sg13
VLatin Modern Roman
p1055
sg15
I400
sg16
g12
sg17
g12
sg18
V/usr/share/texmf/fonts/opentype/public/lm/lmroman7-regular.otf
p1056
sg20
g21
sbag1
(g8
g3
NtRp1057
(dp1058
g11
g24
sg13
VTeX Gyre Heros
p1059
sg15
I700
sg16
g12
sg17
g12
sg18
V/usr/share/texmf/fonts/opentype/public/tex-gyre/texgyreheros-bolditalic.otf
p1060
sg20
g21
sbag1
(g8
g3
NtRp1061
(dp1062
g11
g24
sg13
VEB Garamond
p1063
sg15
I400
sg16
g12
sg17
g12
sg18
V/usr/share/fonts/truetype/ebgaramond/EBGaramond12-Italic.ttf
p1064
sg20
g21
sbag1
(g8
g3
NtRp1065
(dp1066
g11
g24
sg13
VGillius ADF No2
p1067
sg15
I400
sg16
g12
sg17
g12
sg18
V/usr/share/fonts/truetype/adf/GilliusADFNo2-Italic.otf
p1068
sg20
g21
sbag1
(g8
g3
NtRp1069
(dp1070
g11
g24
sg13
VTeX Gyre Cursor
p1071
sg15
I700
sg16
g12
sg17
g12
sg18
V/usr/share/texmf/fonts/opentype/public/tex-gyre/texgyrecursor-bolditalic.otf
p1072
sg20
g21
sbag1
(g8
g3
NtRp1073
(dp1074
g11
g12
sg13
VRoboto
p1075
sg15
I400
sg16
g12
sg17
g12
sg18
V/usr/share/fonts/truetype/roboto/Roboto-Thin.ttf
p1076
sg20
g21
sbag1
(g8
g3
NtRp1077
(dp1078
g11
g12
sg13
VLatin Modern Sans
p1079
sg15
I700
sg16
g12
sg17
g12
sg18
V/usr/share/texmf/fonts/opentype/public/lm/lmsans10-bold.otf
p1080
sg20
g21
sbag1
(g8
g3
NtRp1081
(dp1082
g11
g24
sg13
VAccanthis ADF Std
p1083
sg15
I400
sg16
g12
sg17
g12
sg18
V/usr/share/fonts/truetype/adf/AccanthisADFStd-Italic.otf
p1084
sg20
g21
sbag1
(g8
g3
NtRp1085
(dp1086
g11
g12
sg13
VLiberation Mono
p1087
sg15
I700
sg16
g12
sg17
g12
sg18
V/usr/share/fonts/truetype/liberation/LiberationMono-Bold.ttf
p1088
sg20
g21
sbag1
(g8
g3
NtRp1089
(dp1090
g11
g12
sg13
VDejaVu Sans
p1091
sg15
I700
sg16
g12
sg17
g12
sg18
V/usr/share/fonts/truetype/dejavu/DejaVuSans-Bold.ttf
p1092
sg20
g21
sbag1
(g8
g3
NtRp1093
(dp1094
g11
g12
sg13
Vmsam10
p1095
sg15
I400
sg16
g12
sg17
g12
sg18
V/usr/share/fonts/truetype/lyx/msam10.ttf
p1096
sg20
g21
sbag1
(g8
g3
NtRp1097
(dp1098
g11
g12
sg13
VGFS Solomos
p1099
sg15
I400
sg16
g12
sg17
g12
sg18
V/usr/share/fonts/truetype/solomos/GFSSolomos.otf
p1100
sg20
g21
sbag1
(g8
g3
NtRp1101
(dp1102
g11
g12
sg13
VLatin Modern Roman
p1103
sg15
I400
sg16
g12
sg17
g12
sg18
V/usr/share/texmf/fonts/opentype/public/lm/lmroman6-regular.otf
p1104
sg20
g21
sbag1
(g8
g3
NtRp1105
(dp1106
g11
g12
sg13
VFontAwesome
p1107
sg15
I400
sg16
g12
sg17
g12
sg18
V/usr/share/fonts/opentype/font-awesome/FontAwesome.otf
p1108
sg20
g21
sbag1
(g8
g3
NtRp1109
(dp1110
g11
g29
sg13
VDejaVu Sans
p1111
sg15
I700
sg16
g12
sg17
g12
sg18
V/usr/share/fonts/truetype/dejavu/DejaVuSans-BoldOblique.ttf
p1112
sg20
g21
sbag1
(g8
g3
NtRp1113
(dp1114
g11
g24
sg13
VLiberation Sans Narrow
p1115
sg15
I400
sg16
g275
sg17
g12
sg18
V/usr/share/fonts/truetype/ttf-liberation/LiberationSansNarrow-Italic.ttf
p1116
sg20
g21
sbag1
(g8
g3
NtRp1117
(dp1118
g11
g12
sg13
VGentium Plus
p1119
sg15
I400
sg16
g12
sg17
g12
sg18
V/usr/share/fonts/opentype/gentiumplus/GentiumPlus-R.ttf
p1120
sg20
g21
sbag1
(g8
g3
NtRp1121
(dp1122
g11
g12
sg13
VDroid Serif
p1123
sg15
I400
sg16
g12
sg17
g12
sg18
V/usr/share/fonts/truetype/droid/DroidSerif-Regular.ttf
p1124
sg20
g21
sbag1
(g8
g3
NtRp1125
(dp1126
g11
g12
sg13
Vmsbm10
p1127
sg15
I400
sg16
g12
sg17
g12
sg18
V/usr/share/fonts/truetype/lyx/msbm10.ttf
p1128
sg20
g21
sbag1
(g8
g3
NtRp1129
(dp1130
g11
g24
sg13
VCarlito
p1131
sg15
I400
sg16
g12
sg17
g12
sg18
V/usr/share/fonts/truetype/crosextra/Carlito-Italic.ttf
p1132
sg20
g21
sbag1
(g8
g3
NtRp1133
(dp1134
g11
g24
sg13
VDejaVu Serif
p1135
sg15
I400
sg16
g12
sg17
g12
sg18
V/usr/share/fonts/truetype/dejavu/DejaVuSerif-Italic.ttf
p1136
sg20
g21
sbag1
(g8
g3
NtRp1137
(dp1138
g11
g12
sg13
VGillius ADF Cd
p1139
sg15
I700
sg16
g12
sg17
g12
sg18
V/usr/share/fonts/truetype/adf/GilliusADFCd-Bold.otf
p1140
sg20
g21
sbag1
(g8
g3
NtRp1141
(dp1142
g11
g12
sg13
VCaladea
p1143
sg15
I700
sg16
g12
sg17
g12
sg18
V/usr/share/fonts/truetype/crosextra/Caladea-Bold.ttf
p1144
sg20
g21
sbag1
(g8
g3
NtRp1145
(dp1146
g11
g29
sg13
VUniversalis ADF Cd Std
p1147
sg15
I400
sg16
g12
sg17
g12
sg18
V/usr/share/fonts/truetype/adf/UniversalisADFCdStd-Oblique.otf
p1148
sg20
g21
sbag1
(g8
g3
NtRp1149
(dp1150
g11
g12
sg13
VSTIXSizeTwoSym
p1151
sg15
I400
sg16
g12
sg17
g12
sg18
V/usr/share/fonts/opentype/stix/STIXSizeTwoSym-Regular.otf
p1152
sg20
g21
sbag1
(g8
g3
NtRp1153
(dp1154
g11
g12
sg13
VTeX Gyre Pagella Math
p1155
sg15
I400
sg16
g12
sg17
g12
sg18
V/usr/share/texmf/fonts/opentype/public/tex-gyre-math/texgyrepagella-math.otf
p1156
sg20
g21
sbag1
(g8
g3
NtRp1157
(dp1158
g11
g12
sg13
VDroid Sans
p1159
sg15
I400
sg16
g12
sg17
g12
sg18
V/usr/share/fonts/truetype/droid/DroidSans.ttf
p1160
sg20
g21
sbag1
(g8
g3
NtRp1161
(dp1162
g11
g24
sg13
VTeX Gyre Heros Cn
p1163
sg15
I400
sg16
g12
sg17
g12
sg18
V/usr/share/texmf/fonts/opentype/public/tex-gyre/texgyreheroscn-italic.otf
p1164
sg20
g21
sbag1
(g8
g3
NtRp1165
(dp1166
g11
g24
sg13
VGFS Neohellenic
p1167
sg15
I400
sg16
g12
sg17
g12
sg18
V/usr/share/fonts/truetype/neohellenic/GFSNeohellenicIt.otf
p1168
sg20
g21
sbag1
(g8
g3
NtRp1169
(dp1170
g11
g12
sg13
VSTIXSizeFiveSym
p1171
sg15
I400
sg16
g12
sg17
g12
sg18
V/usr/share/fonts/opentype/stix/STIXSizeFiveSym-Regular.otf
p1172
sg20
g21
sbag1
(g8
g3
NtRp1173
(dp1174
g11
g12
sg13
VEB Garamond Initials
p1175
sg15
I400
sg16
g12
sg17
g12
sg18
V/usr/share/fonts/truetype/ebgaramond/EBGaramond-Initials.ttf
p1176
sg20
g21
sbag1
(g8
g3
NtRp1177
(dp1178
g11
g29
sg13
VFreeSans
p1179
sg15
I400
sg16
g12
sg17
g12
sg18
V/usr/share/fonts/opentype/freefont/FreeSansOblique.otf
p1180
sg20
g21
sbag1
(g8
g3
NtRp1181
(dp1182
g11
g12
sg13
VLatin Modern Mono
p1183
sg15
I400
sg16
g12
sg17
g12
sg18
V/usr/share/texmf/fonts/opentype/public/lm/lmmono12-regular.otf
p1184
sg20
g21
sbag1
(g8
g3
NtRp1185
(dp1186
g11
g12
sg13
VMathJax_AMS
p1187
sg15
I400
sg16
g12
sg17
g12
sg18
V/usr/share/fonts/opentype/mathjax/MathJax_AMS-Regular.otf
p1188
sg20
g21
sbag1
(g8
g3
NtRp1189
(dp1190
g11
g24
sg13
VLiberation Sans
p1191
sg15
I700
sg16
g12
sg17
g12
sg18
V/usr/share/fonts/truetype/liberation/LiberationSans-BoldItalic.ttf
p1192
sg20
g21
sbag1
(g8
g3
NtRp1193
(dp1194
g11
g12
sg13
VTeX Gyre Adventor
p1195
sg15
I700
sg16
g12
sg17
g12
sg18
V/usr/share/texmf/fonts/opentype/public/tex-gyre/texgyreadventor-bold.otf
p1196
sg20
g21
sbag1
(g8
g3
NtRp1197
(dp1198
g11
g12
sg13
VLobster Two
p1199
sg15
I700
sg16
g12
sg17
g12
sg18
V/usr/share/fonts/opentype/lobstertwo/LobsterTwo-Bold.otf
p1200
sg20
g21
sbag1
(g8
g3
NtRp1201
(dp1202
g11
g12
sg13
VTeX Gyre Adventor
p1203
sg15
I400
sg16
g12
sg17
g12
sg18
V/usr/share/texmf/fonts/opentype/public/tex-gyre/texgyreadventor-regular.otf
p1204
sg20
g21
sbag1
(g8
g3
NtRp1205
(dp1206
g11
g12
sg13
VLatin Modern Mono Light Cond
p1207
sg15
I400
sg16
g275
sg17
g12
sg18
V/usr/share/texmf/fonts/opentype/public/lm/lmmonoltcond10-regular.otf
p1208
sg20
g21
sbag1
(g8
g3
NtRp1209
(dp1210
g11
g12
sg13
VLatin Modern Roman Demi
p1211
sg15
I600
sg16
g12
sg17
g12
sg18
V/usr/share/texmf/fonts/opentype/public/lm/lmromandemi10-regular.otf
p1212
sg20
g21
sbag1
(g8
g3
NtRp1213
(dp1214
g11
g12
sg13
VLato
p1215
sg15
I900
sg16
g12
sg17
g12
sg18
V/usr/share/fonts/truetype/lato/Lato-Black.ttf
p1216
sg20
g21
sbag1
(g8
g3
NtRp1217
(dp1218
g11
g12
sg13
VGFS Theokritos
p1219
sg15
I400
sg16
g12
sg17
g12
sg18
V/usr/share/fonts/truetype/theokritos/GFSTheokritos.otf
p1220
sg20
g21
sbag1
(g8
g3
NtRp1221
(dp1222
g11
g12
sg13
VMathJax_Caligraphic
p1223
sg15
I400
sg16
g12
sg17
g12
sg18
V/usr/share/fonts/opentype/mathjax/MathJax_Caligraphic-Regular.otf
p1224
sg20
g21
sbag1
(g8
g3
NtRp1225
(dp1226
g11
g12
sg13
VOCRABold
p1227
sg15
I700
sg16
g12
sg17
g12
sg18
V/usr/share/fonts/truetype/ocr-a/OCRABold.ttf
p1228
sg20
g21
sbag1
(g8
g3
NtRp1229
(dp1230
g11
g29
sg13
VLatin Modern Sans Demi Cond
p1231
sg15
I600
sg16
g275
sg17
g12
sg18
V/usr/share/texmf/fonts/opentype/public/lm/lmsansdemicond10-oblique.otf
p1232
sg20
g21
sbag1
(g8
g3
NtRp1233
(dp1234
g11
g24
sg13
VAccanthis ADF Std No2
p1235
sg15
I400
sg16
g12
sg17
g12
sg18
V/usr/share/fonts/truetype/adf/AccanthisADFStdNo2-Italic.otf
p1236
sg20
g21
sbag1
(g8
g3
NtRp1237
(dp1238
g11
g12
sg13
VDejaVu Sans
p1239
sg15
I200
sg16
g12
sg17
g12
sg18
V/usr/share/fonts/truetype/dejavu/DejaVuSans-ExtraLight.ttf
p1240
sg20
g21
sbag1
(g8
g3
NtRp1241
(dp1242
g11
g12
sg13
VLato
p1243
sg15
I700
sg16
g12
sg17
g12
sg18
V/usr/share/fonts/truetype/lato/Lato-Semibold.ttf
p1244
sg20
g21
sbag1
(g8
g3
NtRp1245
(dp1246
g11
g29
sg13
VUniversalis ADF Cd Std
p1247
sg15
I700
sg16
g12
sg17
g12
sg18
V/usr/share/fonts/truetype/adf/UniversalisADFCdStd-BdOblique.otf
p1248
sg20
g21
sbag1
(g8
g3
NtRp1249
(dp1250
g11
g24
sg13
VTeX Gyre Schola
p1251
sg15
I400
sg16
g12
sg17
g12
sg18
V/usr/share/texmf/fonts/opentype/public/tex-gyre/texgyreschola-italic.otf
p1252
sg20
g21
sbag1
(g8
g3
NtRp1253
(dp1254
g11
g12
sg13
VTeX Gyre Cursor
p1255
sg15
I700
sg16
g12
sg17
g12
sg18
V/usr/share/texmf/fonts/opentype/public/tex-gyre/texgyrecursor-bold.otf
p1256
sg20
g21
sbag1
(g8
g3
NtRp1257
(dp1258
g11
g29
sg13
VLatin Modern Mono Light Cond
p1259
sg15
I200
sg16
g275
sg17
g12
sg18
V/usr/share/texmf/fonts/opentype/public/lm/lmmonoltcond10-oblique.otf
p1260
sg20
g21
sbag1
(g8
g3
NtRp1261
(dp1262
g11
g12
sg13
VAccanthis ADF Std No2
p1263
sg15
I400
sg16
g12
sg17
g12
sg18
V/usr/share/fonts/truetype/adf/AccanthisADFStdNo2-Regular.otf
p1264
sg20
g21
sbag1
(g8
g3
NtRp1265
(dp1266
g11
g12
sg13
VMathJax_Fraktur
p1267
sg15
I400
sg16
g12
sg17
g12
sg18
V/usr/share/fonts/opentype/mathjax/MathJax_Fraktur-Regular.otf
p1268
sg20
g21
sbag1
(g8
g3
NtRp1269
(dp1270
g11
g12
sg13
VLatin Modern Roman
p1271
sg15
I700
sg16
g12
sg17
g12
sg18
V/usr/share/texmf/fonts/opentype/public/lm/lmroman7-bold.otf
p1272
sg20
g21
sbag1
(g8
g3
NtRp1273
(dp1274
g11
g24
sg13
VEB Garamond
p1275
sg15
I400
sg16
g12
sg17
g12
sg18
V/usr/share/fonts/truetype/ebgaramond/EBGaramond08-Italic.ttf
p1276
sg20
g21
sbag1
(g8
g3
NtRp1277
(dp1278
g11
g12
sg13
VMathJax_SansSerif
p1279
sg15
I700
sg16
g12
sg17
g12
sg18
V/usr/share/fonts/opentype/mathjax/MathJax_SansSerif-Bold.otf
p1280
sg20
g21
sbag1
(g8
g3
NtRp1281
(dp1282
g11
g12
sg13
VCabin
p1283
sg15
I700
sg16
g12
sg17
g12
sg18
V/usr/share/fonts/opentype/cabin/Cabin-SemiBold.otf
p1284
sg20
g21
sbag1
(g8
g3
NtRp1285
(dp1286
g11
g29
sg13
VLatin Modern Mono Prop Light
p1287
sg15
I700
sg16
g12
sg17
g12
sg18
V/usr/share/texmf/fonts/opentype/public/lm/lmmonoproplt10-boldoblique.otf
p1288
sg20
g21
sbag1
(g8
g3
NtRp1289
(dp1290
g11
g12
sg13
VIPAPGothic
p1291
sg15
I400
sg16
g12
sg17
g12
sg18
V/usr/share/fonts/opentype/ipafont-gothic/ipagp.ttf
p1292
sg20
g21
sbag1
(g8
g3
NtRp1293
(dp1294
g11
g24
sg13
VGFS Artemisia
p1295
sg15
I400
sg16
g12
sg17
g12
sg18
V/usr/share/fonts/truetype/artemisia/GFSArtemisiaIt.otf
p1296
sg20
g21
sbag1
(g8
g3
NtRp1297
(dp1298
g11
g12
sg13
VMathJax_Fraktur
p1299
sg15
I700
sg16
g12
sg17
g12
sg18
V/usr/share/fonts/opentype/mathjax/MathJax_Fraktur-Bold.otf
p1300
sg20
g21
sbag1
(g8
g3
NtRp1301
(dp1302
g11
g12
sg13
VGFS Didot
p1303
sg15
I700
sg16
g12
sg17
g12
sg18
V/usr/share/fonts/truetype/didot/GFSDidotBold.otf
p1304
sg20
g21
sbag1
(g8
g3
NtRp1305
(dp1306
g11
g29
sg13
VLatin Modern Sans
p1307
sg15
I400
sg16
g12
sg17
g12
sg18
V/usr/share/texmf/fonts/opentype/public/lm/lmsans8-oblique.otf
p1308
sg20
g21
sbag1
(g8
g3
NtRp1309
(dp1310
g11
g29
sg13
VFreeMono
p1311
sg15
I700
sg16
g12
sg17
g12
sg18
V/usr/share/fonts/truetype/freefont/FreeMonoBoldOblique.ttf
p1312
sg20
g21
sbag1
(g8
g3
NtRp1313
(dp1314
g11
g24
sg13
VAccanthis ADF Std No3
p1315
sg15
I700
sg16
g12
sg17
g12
sg18
V/usr/share/fonts/truetype/adf/AccanthisADFStdNo3-BoldItalic.otf
p1316
sg20
g21
sbag1
(g8
g3
NtRp1317
(dp1318
g11
g24
sg13
VGillius ADF Cd
p1319
sg15
I700
sg16
g12
sg17
g12
sg18
V/usr/share/fonts/truetype/adf/GilliusADFCd-BoldItalic.otf
p1320
sg20
g21
sbag1
(g8
g3
NtRp1321
(dp1322
g11
g12
sg13
VTeX Gyre Schola
p1323
sg15
I700
sg16
g12
sg17
g12
sg18
V/usr/share/texmf/fonts/opentype/public/tex-gyre/texgyreschola-bold.otf
p1324
sg20
g21
sbag1
(g8
g3
NtRp1325
(dp1326
g11
g12
sg13
VMathJax_Size2
p1327
sg15
I400
sg16
g12
sg17
g12
sg18
V/usr/share/fonts/opentype/mathjax/MathJax_Size2-Regular.otf
p1328
sg20
g21
sbag1
(g8
g3
NtRp1329
(dp1330
g11
g12
sg13
VMathJax_Size3
p1331
sg15
I400
sg16
g12
sg17
g12
sg18
V/usr/share/fonts/opentype/mathjax/MathJax_Size3-Regular.otf
p1332
sg20
g21
sbag1
(g8
g3
NtRp1333
(dp1334
g11
g12
sg13
VGFS Gazis
p1335
sg15
I400
sg16
g12
sg17
g12
sg18
V/usr/share/fonts/truetype/gazis/GFSGazis.otf
p1336
sg20
g21
sbag1
(g8
g3
NtRp1337
(dp1338
g11
g12
sg13
VAmiri Quran
p1339
sg15
I400
sg16
g12
sg17
g12
sg18
V/usr/share/fonts/opentype/fonts-hosny-amiri/amiri-quran.ttf
p1340
sg20
g21
sbag1
(g8
g3
NtRp1341
(dp1342
g11
g24
sg13
VDejaVu Serif
p1343
sg15
I400
sg16
g275
sg17
g12
sg18
V/usr/share/fonts/truetype/dejavu/DejaVuSerifCondensed-Italic.ttf
p1344
sg20
g21
sbag1
(g8
g3
NtRp1345
(dp1346
g11
g24
sg13
VTeX Gyre Pagella
p1347
sg15
I700
sg16
g12
sg17
g12
sg18
V/usr/share/texmf/fonts/opentype/public/tex-gyre/texgyrepagella-bolditalic.otf
p1348
sg20
g21
sbag1
(g8
g3
NtRp1349
(dp1350
g11
g24
sg13
VLiberation Sans Narrow
p1351
sg15
I700
sg16
g275
sg17
g12
sg18
V/usr/share/fonts/truetype/liberation/LiberationSansNarrow-BoldItalic.ttf
p1352
sg20
g21
sbag1
(g8
g3
NtRp1353
(dp1354
g11
g12
sg13
VLatin Modern Roman Dunhill
p1355
sg15
I400
sg16
g12
sg17
g12
sg18
V/usr/share/texmf/fonts/opentype/public/lm/lmromandunh10-regular.otf
p1356
sg20
g21
sbag1
(g8
g3
NtRp1357
(dp1358
g11
g12
sg13
VGFS Didot
p1359
sg15
I400
sg16
g12
sg17
g12
sg18
V/usr/share/fonts/truetype/didot/GFSDidot.otf
p1360
sg20
g21
sbag1
(g8
g3
NtRp1361
(dp1362
g11
g12
sg13
VLatin Modern Sans
p1363
sg15
I400
sg16
g12
sg17
g12
sg18
V/usr/share/texmf/fonts/opentype/public/lm/lmsans17-regular.otf
p1364
sg20
g21
sbag1
(g8
g3
NtRp1365
(dp1366
g11
g12
sg13
VSTIXSizeTwoSym
p1367
sg15
I700
sg16
g12
sg17
g12
sg18
V/usr/share/fonts/opentype/stix/STIXSizeTwoSym-Bold.otf
p1368
sg20
g21
sbag1
(g8
g3
NtRp1369
(dp1370
g11
g12
sg13
VMathJax_Main
p1371
sg15
I700
sg16
g12
sg17
g12
sg18
V/usr/share/fonts/opentype/mathjax/MathJax_Main-Bold.otf
p1372
sg20
g21
sbag1
(g8
g3
NtRp1373
(dp1374
g11
g12
sg13
VIPAexMincho
p1375
sg15
I400
sg16
g12
sg17
g12
sg18
V/usr/share/fonts/opentype/ipaexfont-mincho/ipaexm.ttf
p1376
sg20
g21
sbag1
(g8
g3
NtRp1377
(dp1378
g11
g12
sg13
VEB Garamond
p1379
sg15
I400
sg16
g12
sg17
g12
sg18
V/usr/share/fonts/opentype/ebgaramond/EBGaramond12-Regular.otf
p1380
sg20
g21
sbag1
(g8
g3
NtRp1381
(dp1382
g11
g24
sg13
VLobster Two
p1383
sg15
I700
sg16
g12
sg17
g12
sg18
V/usr/share/fonts/opentype/lobster/lobster.otf
p1384
sg20
g21
sbag1
(g8
g3
NtRp1385
(dp1386
g11
g12
sg13
VDroid Arabic Kufi
p1387
sg15
I400
sg16
g12
sg17
g12
sg18
V/usr/share/fonts/truetype/droid/DroidKufi-Regular.ttf
p1388
sg20
g21
sbag1
(g8
g3
NtRp1389
(dp1390
g11
g12
sg13
VIPAexGothic
p1391
sg15
I400
sg16
g12
sg17
g12
sg18
V/usr/share/fonts/opentype/ipaexfont-gothic/ipaexg.ttf
p1392
sg20
g21
sbag1
(g8
g3
NtRp1393
(dp1394
g11
g24
sg13
VCarlito
p1395
sg15
I700
sg16
g12
sg17
g12
sg18
V/usr/share/fonts/truetype/crosextra/Carlito-BoldItalic.ttf
p1396
sg20
g21
sbag1
(g8
g3
NtRp1397
(dp1398
g11
g24
sg13
VGentium Book Basic
p1399
sg15
I400
sg16
g12
sg17
g12
sg18
V/usr/share/fonts/truetype/gentium-basic/GenBkBasI.ttf
p1400
sg20
g21
sbag1
(g8
g3
NtRp1401
(dp1402
g11
g29
sg13
VDejaVu Sans
p1403
sg15
I400
sg16
g12
sg17
g12
sg18
V/usr/share/fonts/truetype/dejavu/DejaVuSans-Oblique.ttf
p1404
sg20
g21
sbag1
(g8
g3
NtRp1405
(dp1406
g11
g12
sg13
VTeX Gyre Chorus
p1407
sg15
I400
sg16
g12
sg17
g12
sg18
V/usr/share/texmf/fonts/opentype/public/tex-gyre/texgyrechorus-mediumitalic.otf
p1408
sg20
g21
sbag1
(g8
g3
NtRp1409
(dp1410
g11
g12
sg13
VFreeSerif
p1411
sg15
I400
sg16
g12
sg17
g12
sg18
V/usr/share/fonts/truetype/freefont/FreeSerif.ttf
p1412
sg20
g21
sbag1
(g8
g3
NtRp1413
(dp1414
g11
g12
sg13
VLatin Modern Roman Slanted
p1415
sg15
I400
sg16
g12
sg17
g12
sg18
V/usr/share/texmf/fonts/opentype/public/lm/lmromanslant10-regular.otf
p1416
sg20
g21
sbag1
(g8
g3
NtRp1417
(dp1418
g11
g24
sg13
VSTIXGeneral
p1419
sg15
I400
sg16
g12
sg17
g12
sg18
V/usr/share/fonts/opentype/stix/STIXGeneral-Italic.otf
p1420
sg20
g21
sbag1
(g8
g3
NtRp1421
(dp1422
g11
g12
sg13
VSTIXIntegralsSm
p1423
sg15
I400
sg16
g12
sg17
g12
sg18
V/usr/share/fonts/opentype/stix/STIXIntegralsSm-Regular.otf
p1424
sg20
g21
sbag1
(g8
g3
NtRp1425
(dp1426
g11
g29
sg13
VLatin Modern Sans
p1427
sg15
I700
sg16
g12
sg17
g12
sg18
V/usr/share/texmf/fonts/opentype/public/lm/lmsans10-boldoblique.otf
p1428
sg20
g21
sbag1
(g8
g3
NtRp1429
(dp1430
g11
g12
sg13
VAccanthis ADF Std
p1431
sg15
I700
sg16
g12
sg17
g12
sg18
V/usr/share/fonts/truetype/adf/AccanthisADFStd-Bold.otf
p1432
sg20
g21
sbag1
(g8
g3
NtRp1433
(dp1434
g11
g12
sg13
VLinux Libertine Mono O
p1435
sg15
I400
sg16
g12
sg17
g12
sg18
V/usr/share/fonts/opentype/linux-libertine/LinLibertine_M.otf
p1436
sg20
g21
sbag1
(g8
g3
NtRp1437
(dp1438
g11
g29
sg13
VUniversalis ADF Std
p1439
sg15
I700
sg16
g12
sg17
g12
sg18
V/usr/share/fonts/truetype/adf/UniversalisADFStd-BoldOblique.otf
p1440
sg20
g21
sbag1
(g8
g3
NtRp1441
(dp1442
g11
g12
sg13
VSTIXGeneral
p1443
sg15
I700
sg16
g12
sg17
g12
sg18
V/usr/share/fonts/opentype/stix/STIXGeneral-Bold.otf
p1444
sg20
g21
sbag1
(g8
g3
NtRp1445
(dp1446
g11
g12
sg13
VGFS Complutum
p1447
sg15
I400
sg16
g12
sg17
g12
sg18
V/usr/share/fonts/truetype/complutum/GFSPolyglot.otf
p1448
sg20
g21
sbag1
(g8
g3
NtRp1449
(dp1450
g11
g12
sg13
VSTIXSizeFourSym
p1451
sg15
I400
sg16
g12
sg17
g12
sg18
V/usr/share/fonts/opentype/stix/STIXSizeFourSym-Regular.otf
p1452
sg20
g21
sbag1
(g8
g3
NtRp1453
(dp1454
g11
g12
sg13
VCarlito
p1455
sg15
I700
sg16
g12
sg17
g12
sg18
V/usr/share/fonts/truetype/crosextra/Carlito-Bold.ttf
p1456
sg20
g21
sbag1
(g8
g3
NtRp1457
(dp1458
g11
g24
sg13
VLinux Libertine O
p1459
sg15
I700
sg16
g12
sg17
g12
sg18
V/usr/share/fonts/opentype/linux-libertine/LinLibertine_RBI.otf
p1460
sg20
g21
sbag1
(g8
g3
NtRp1461
(dp1462
g11
g12
sg13
VIPAPMincho
p1463
sg15
I400
sg16
g12
sg17
g12
sg18
V/usr/share/fonts/opentype/ipafont-mincho/ipamp.ttf
p1464
sg20
g21
sbag1
(g8
g3
NtRp1465
(dp1466
g11
g24
sg13
VFreeSerif
p1467
sg15
I400
sg16
g12
sg17
g12
sg18
V/usr/share/fonts/truetype/freefont/FreeSerifItalic.ttf
p1468
sg20
g21
sbag1
(g8
g3
NtRp1469
(dp1470
g11
g24
sg13
VCabin
p1471
sg15
I700
sg16
g12
sg17
g12
sg18
V/usr/share/fonts/opentype/cabin/Cabin-BoldItalic.otf
p1472
sg20
g21
sbag1
(g8
g3
NtRp1473
(dp1474
g11
g29
sg13
VLatin Modern Roman Caps
p1475
sg15
I500
sg16
g12
sg17
g12
sg18
V/usr/share/texmf/fonts/opentype/public/lm/lmromancaps10-oblique.otf
p1476
sg20
g21
sbag1
(g8
g3
NtRp1477
(dp1478
g11
g24
sg13
VCaladea
p1479
sg15
I700
sg16
g12
sg17
g12
sg18
V/usr/share/fonts/truetype/crosextra/Caladea-BoldItalic.ttf
p1480
sg20
g21
sbag1
(g8
g3
NtRp1481
(dp1482
g11
g12
sg13
VDroid Sans Japanese
p1483
sg15
I400
sg16
g12
sg17
g12
sg18
V/usr/share/fonts/truetype/droid/DroidSansJapanese.ttf
p1484
sg20
g21
sbag1
(g8
g3
NtRp1485
(dp1486
g11
g12
sg13
VEB Garamond Initials Fill2
p1487
sg15
I400
sg16
g12
sg17
g12
sg18
V/usr/share/fonts/truetype/ebgaramond/EBGaramond-InitialsF2.ttf
p1488
sg20
g21
sbag1
(g8
g3
NtRp1489
(dp1490
g11
g24
sg13
VTeX Gyre Cursor
p1491
sg15
I400
sg16
g12
sg17
g12
sg18
V/usr/share/texmf/fonts/opentype/public/tex-gyre/texgyrecursor-italic.otf
p1492
sg20
g21
sbag1
(g8
g3
NtRp1493
(dp1494
g11
g12
sg13
VLinux Libertine O
p1495
sg15
I700
sg16
g12
sg17
g12
sg18
V/usr/share/fonts/opentype/linux-libertine/LinLibertine_RB.otf
p1496
sg20
g21
sbag1
(g8
g3
NtRp1497
(dp1498
g11
g12
sg13
VSTIXSizeFourSym
p1499
sg15
I700
sg16
g12
sg17
g12
sg18
V/usr/share/fonts/opentype/stix/STIXSizeFourSym-Bold.otf
p1500
sg20
g21
sbag1
(g8
g3
NtRp1501
(dp1502
g11
g24
sg13
VDejaVu Serif
p1503
sg15
I700
sg16
g275
sg17
g12
sg18
V/usr/share/fonts/truetype/dejavu/DejaVuSerifCondensed-BoldItalic.ttf
p1504
sg20
g21
sbag1
(g8
g3
NtRp1505
(dp1506
g11
g12
sg13
VSTIXIntegralsUpSm
p1507
sg15
I400
sg16
g12
sg17
g12
sg18
V/usr/share/fonts/opentype/stix/STIXIntegralsUpSm-Regular.otf
p1508
sg20
g21
sbag1
(g8
g3
NtRp1509
(dp1510
g11
g12
sg13
VMathJax_SansSerif
p1511
sg15
I400
sg16
g12
sg17
g12
sg18
V/usr/share/fonts/opentype/mathjax/MathJax_SansSerif-Regular.otf
p1512
sg20
g21
sbag1
(g8
g3
NtRp1513
(dp1514
g11
g24
sg13
VJunicode
p1515
sg15
I400
sg16
g12
sg17
g12
sg18
V/usr/share/fonts/truetype/junicode/Junicode-Italic.ttf
p1516
sg20
g21
sbag1
(g8
g3
NtRp1517
(dp1518
g11
g12
sg13
VLatin Modern Sans
p1519
sg15
I400
sg16
g12
sg17
g12
sg18
V/usr/share/texmf/fonts/opentype/public/lm/lmsans9-regular.otf
p1520
sg20
g21
sbag1
(g8
g3
NtRp1521
(dp1522
g11
g29
sg13
VLatin Modern Mono Light
p1523
sg15
I200
sg16
g12
sg17
g12
sg18
V/usr/share/texmf/fonts/opentype/public/lm/lmmonolt10-oblique.otf
p1524
sg20
g21
sbag1
(g8
g3
NtRp1525
(dp1526
g11
g12
sg13
VFreeMono
p1527
sg15
I400
sg16
g12
sg17
g12
sg18
V/usr/share/fonts/opentype/freefont/FreeMono.otf
p1528
sg20
g21
sbag1
(g8
g3
NtRp1529
(dp1530
g11
g12
sg13
VDroid Serif
p1531
sg15
I700
sg16
g12
sg17
g12
sg18
V/usr/share/fonts/truetype/droid/DroidSerif-Bold.ttf
p1532
sg20
g21
sbag1
(g8
g3
NtRp1533
(dp1534
g11
g12
sg13
VUniversalis ADF Std
p1535
sg15
I400
sg16
g12
sg17
g12
sg18
V/usr/share/fonts/truetype/adf/UniversalisADFStd-Regular.otf
p1536
sg20
g21
sbag1
(g8
g3
NtRp1537
(dp1538
g11
g12
sg13
VMathJax_Typewriter
p1539
sg15
I400
sg16
g12
sg17
g12
sg18
V/usr/share/fonts/opentype/mathjax/MathJax_Typewriter-Regular.otf
p1540
sg20
g21
sbag1
(g8
g3
NtRp1541
(dp1542
g11
g24
sg13
VGentium Plus
p1543
sg15
I400
sg16
g12
sg17
g12
sg18
V/usr/share/fonts/opentype/gentiumplus/GentiumPlus-I.ttf
p1544
sg20
g21
sbag1
(g8
g3
NtRp1545
(dp1546
g11
g24
sg13
VLato
p1547
sg15
I400
sg16
g12
sg17
g12
sg18
V/usr/share/fonts/truetype/lato/Lato-Italic.ttf
p1548
sg20
g21
sbag1
(g8
g3
NtRp1549
(dp1550
g11
g29
sg13
VFreeSans
p1551
sg15
I400
sg16
g12
sg17
g12
sg18
V/usr/share/fonts/truetype/freefont/FreeSansOblique.ttf
p1552
sg20
g21
sbag1
(g8
g3
NtRp1553
(dp1554
g11
g12
sg13
VGentium Basic
p1555
sg15
I700
sg16
g12
sg17
g12
sg18
V/usr/share/fonts/truetype/gentium-basic/GenBasB.ttf
p1556
sg20
g21
sbag1
(g8
g3
NtRp1557
(dp1558
g11
g29
sg13
VLatin Modern Roman Dunhill
p1559
sg15
I500
sg16
g12
sg17
g12
sg18
V/usr/share/texmf/fonts/opentype/public/lm/lmromandunh10-oblique.otf
p1560
sg20
g21
sbag1
(g8
g3
NtRp1561
(dp1562
g11
g12
sg13
VAccanthis ADF Std No3
p1563
sg15
I700
sg16
g12
sg17
g12
sg18
V/usr/share/fonts/truetype/adf/AccanthisADFStdNo3-Bold.otf
p1564
sg20
g21
sbag1
(g8
g3
NtRp1565
(dp1566
g11
g12
sg13
VLiberation Mono
p1567
sg15
I400
sg16
g12
sg17
g12
sg18
V/usr/share/fonts/truetype/liberation/LiberationMono-Regular.ttf
p1568
sg20
g21
sbag1
(g8
g3
NtRp1569
(dp1570
g11
g24
sg13
VTeX Gyre Bonum
p1571
sg15
I400
sg16
g12
sg17
g12
sg18
V/usr/share/texmf/fonts/opentype/public/tex-gyre/texgyrebonum-italic.otf
p1572
sg20
g21
sbag1
(g8
g3
NtRp1573
(dp1574
g11
g12
sg13
VSTIXVariants
p1575
sg15
I400
sg16
g12
sg17
g12
sg18
V/usr/share/fonts/opentype/stix/STIXVariants-Regular.otf
p1576
sg20
g21
sbag1
(g8
g3
NtRp1577
(dp1578
g11
g12
sg13
VLatin Modern Sans
p1579
sg15
I400
sg16
g12
sg17
g12
sg18
V/usr/share/texmf/fonts/opentype/public/lm/lmsans10-regular.otf
p1580
sg20
g21
sbag1
(g8
g3
NtRp1581
(dp1582
g11
g24
sg13
Vrsfs10
p1583
sg15
I400
sg16
g12
sg17
g12
sg18
V/usr/share/fonts/truetype/lyx/rsfs10.ttf
p1584
sg20
g21
sbag1
(g8
g3
NtRp1585
(dp1586
g11
g12
sg13
VGentium Book Basic
p1587
sg15
I700
sg16
g12
sg17
g12
sg18
V/usr/share/fonts/truetype/gentium-basic/GenBkBasB.ttf
p1588
sg20
g21
sbag1
(g8
g3
NtRp1589
(dp1590
g11
g12
sg13
VLatin Modern Roman Slanted
p1591
sg15
I400
sg16
g12
sg17
g12
sg18
V/usr/share/texmf/fonts/opentype/public/lm/lmromanslant17-regular.otf
p1592
sg20
g21
sbag1
(g8
g3
NtRp1593
(dp1594
g11
g29
sg13
VLatin Modern Sans
p1595
sg15
I400
sg16
g12
sg17
g12
sg18
V/usr/share/texmf/fonts/opentype/public/lm/lmsans10-oblique.otf
p1596
sg20
g21
sbag1
(g8
g3
NtRp1597
(dp1598
g11
g24
sg13
VCabin
p1599
sg15
I700
sg16
g12
sg17
g12
sg18
V/usr/share/fonts/opentype/cabin/Cabin-SemiBoldItalic.otf
p1600
sg20
g21
sbag1
(g8
g3
NtRp1601
(dp1602
g11
g12
sg13
VLatin Modern Sans Quotation
p1603
sg15
I400
sg16
g12
sg17
g12
sg18
V/usr/share/texmf/fonts/opentype/public/lm/lmsansquot8-regular.otf
p1604
sg20
g21
sbag1
(g8
g3
NtRp1605
(dp1606
g11
g24
sg13
VAccanthis ADF Std
p1607
sg15
I700
sg16
g12
sg17
g12
sg18
V/usr/share/fonts/truetype/adf/AccanthisADFStd-BoldItalic.otf
p1608
sg20
g21
sbag1
(g8
g3
NtRp1609
(dp1610
g11
g12
sg13
VLinux Libertine Display O
p1611
sg15
I400
sg16
g12
sg17
g12
sg18
V/usr/share/fonts/opentype/linux-libertine/LinLibertine_DR.otf
p1612
sg20
g21
sbag1
(g8
g3
NtRp1613
(dp1614
g11
g29
sg13
VLatin Modern Mono Caps
p1615
sg15
I400
sg16
g12
sg17
g12
sg18
V/usr/share/texmf/fonts/opentype/public/lm/lmmonocaps10-oblique.otf
p1616
sg20
g21
sbag1
(g8
g3
NtRp1617
(dp1618
g11
g12
sg13
VLobster Two
p1619
sg15
I400
sg16
g12
sg17
g12
sg18
V/usr/share/fonts/opentype/lobstertwo/LobsterTwo-Regular.otf
p1620
sg20
g21
sbag1
(g8
g3
NtRp1621
(dp1622
g11
g12
sg13
VLatin Modern Roman
p1623
sg15
I400
sg16
g12
sg17
g12
sg18
V/usr/share/texmf/fonts/opentype/public/lm/lmroman10-regular.otf
p1624
sg20
g21
sbag1
(g8
g3
NtRp1625
(dp1626
g11
g29
sg13
VFreeMono
p1627
sg15
I400
sg16
g12
sg17
g12
sg18
V/usr/share/fonts/opentype/freefont/FreeMonoOblique.otf
p1628
sg20
g21
sbag1
(g8
g3
NtRp1629
(dp1630
g11
g12
sg13
Veufm10
p1631
sg15
I400
sg16
g12
sg17
g12
sg18
V/usr/share/fonts/truetype/lyx/eufm10.ttf
p1632
sg20
g21
sbag1
(g8
g3
NtRp1633
(dp1634
g11
g12
sg13
Vesint10
p1635
sg15
I400
sg16
g12
sg17
g12
sg18
V/usr/share/fonts/truetype/lyx/esint10.ttf
p1636
sg20
g21
sbag1
(g8
g3
NtRp1637
(dp1638
g11
g12
sg13
VLatin Modern Roman
p1639
sg15
I400
sg16
g12
sg17
g12
sg18
V/usr/share/texmf/fonts/opentype/public/lm/lmroman17-regular.otf
p1640
sg20
g21
sbag1
(g8
g3
NtRp1641
(dp1642
g11
g12
sg13
VSTIXIntegralsUpD
p1643
sg15
I400
sg16
g12
sg17
g12
sg18
V/usr/share/fonts/opentype/stix/STIXIntegralsUpD-Regular.otf
p1644
sg20
g21
sbag1
(g8
g3
NtRp1645
(dp1646
g11
g29
sg13
VUniversalis ADF Std
p1647
sg15
I400
sg16
g12
sg17
g12
sg18
V/usr/share/fonts/truetype/adf/UniversalisADFStd-Oblique.otf
p1648
sg20
g21
sbag1
(g8
g3
NtRp1649
(dp1650
g11
g24
sg13
VMathJax_SansSerif
p1651
sg15
I400
sg16
g12
sg17
g12
sg18
V/usr/share/fonts/opentype/mathjax/MathJax_SansSerif-Italic.otf
p1652
sg20
g21
sbag1
(g8
g3
NtRp1653
(dp1654
g11
g12
sg13
VTeX Gyre Schola
p1655
sg15
I400
sg16
g12
sg17
g12
sg18
V/usr/share/texmf/fonts/opentype/public/tex-gyre/texgyreschola-regular.otf
p1656
sg20
g21
sbag1
(g8
g3
NtRp1657
(dp1658
g11
g29
sg13
VLatin Modern Roman Demi
p1659
sg15
I600
sg16
g12
sg17
g12
sg18
V/usr/share/texmf/fonts/opentype/public/lm/lmromandemi10-oblique.otf
p1660
sg20
g21
sbag1
(g8
g3
NtRp1661
(dp1662
g11
g12
sg13
VLato
p1663
sg15
I800
sg16
g12
sg17
g12
sg18
V/usr/share/fonts/truetype/lato/Lato-Heavy.ttf
p1664
sg20
g21
sbag1
(g8
g3
NtRp1665
(dp1666
g11
g24
sg13
VGillius ADF
p1667
sg15
I700
sg16
g12
sg17
g12
sg18
V/usr/share/fonts/truetype/adf/GilliusADF-BoldItalic.otf
p1668
sg20
g21
sbag1
(g8
g3
NtRp1669
(dp1670
g11
g24
sg13
VFreeSerif
p1671
sg15
I400
sg16
g12
sg17
g12
sg18
V/usr/share/fonts/opentype/freefont/FreeSerifItalic.otf
p1672
sg20
g21
sbag1
(g8
g3
NtRp1673
(dp1674
g11
g12
sg13
VLiberation Sans Narrow
p1675
sg15
I700
sg16
g275
sg17
g12
sg18
V/usr/share/fonts/truetype/liberation/LiberationSansNarrow-Bold.ttf
p1676
sg20
g21
sbag1
(g8
g3
NtRp1677
(dp1678
g11
g24
sg13
VCabin
p1679
sg15
I500
sg16
g12
sg17
g12
sg18
V/usr/share/fonts/opentype/cabin/Cabin-MediumItalic.otf
p1680
sg20
g21
sbag1
(g8
g3
NtRp1681
(dp1682
g11
g12
sg13
VDroid Sans Georgian
p1683
sg15
I400
sg16
g12
sg17
g12
sg18
V/usr/share/fonts/truetype/droid/DroidSansGeorgian.ttf
p1684
sg20
g21
sbag1
(g8
g3
NtRp1685
(dp1686
g11
g12
sg13
VAmiri
p1687
sg15
I400
sg16
g12
sg17
g12
sg18
V/usr/share/fonts/opentype/fonts-hosny-amiri/amiri-regular.ttf
p1688
sg20
g21
sbag1
(g8
g3
NtRp1689
(dp1690
g11
g12
sg13
VCaladea
p1691
sg15
I400
sg16
g12
sg17
g12
sg18
V/usr/share/fonts/truetype/crosextra/Caladea-Regular.ttf
p1692
sg20
g21
sbag1
(g8
g3
NtRp1693
(dp1694
g11
g12
sg13
VIPAexMincho
p1695
sg15
I400
sg16
g12
sg17
g12
sg18
V/usr/share/fonts/truetype/fonts-japanese-mincho.ttf
p1696
sg20
g21
sbag1
(g8
g3
NtRp1697
(dp1698
g11
g12
sg13
VLatin Modern Mono Light
p1699
sg15
I400
sg16
g12
sg17
g12
sg18
V/usr/share/texmf/fonts/opentype/public/lm/lmmonolt10-regular.otf
p1700
sg20
g21
sbag1
(g8
g3
NtRp1701
(dp1702
g11
g12
sg13
VCarlito
p1703
sg15
I400
sg16
g12
sg17
g12
sg18
V/usr/share/fonts/truetype/crosextra/Carlito-Regular.ttf
p1704
sg20
g21
sbag1
(g8
g3
NtRp1705
(dp1706
g11
g24
sg13
VLinux Libertine O
p1707
sg15
I400
sg16
g12
sg17
g12
sg18
V/usr/share/fonts/opentype/linux-libertine/LinLibertine_RI.otf
p1708
sg20
g21
sbag1
(g8
g3
NtRp1709
(dp1710
g11
g12
sg13
VLinux Biolinum O
p1711
sg15
I400
sg16
g12
sg17
g12
sg18
V/usr/share/fonts/opentype/linux-libertine/LinBiolinum_R.otf
p1712
sg20
g21
sbag1
(g8
g3
NtRp1713
(dp1714
g11
g29
sg13
VLatin Modern Mono Prop Light
p1715
sg15
I200
sg16
g12
sg17
g12
sg18
V/usr/share/texmf/fonts/opentype/public/lm/lmmonoproplt10-oblique.otf
p1716
sg20
g21
sbag1
(g8
g3
NtRp1717
(dp1718
g11
g12
sg13
VLatin Modern Roman
p1719
sg15
I700
sg16
g12
sg17
g12
sg18
V/usr/share/texmf/fonts/opentype/public/lm/lmroman5-bold.otf
p1720
sg20
g21
sbag1
(g8
g3
NtRp1721
(dp1722
g11
g12
sg13
VDejaVu Sans Mono
p1723
sg15
I400
sg16
g12
sg17
g12
sg18
V/usr/share/fonts/truetype/dejavu/DejaVuSansMono.ttf
p1724
sg20
g21
sbag1
(g8
g3
NtRp1725
(dp1726
g11
g12
sg13
VTeX Gyre Pagella
p1727
sg15
I700
sg16
g12
sg17
g12
sg18
V/usr/share/texmf/fonts/opentype/public/tex-gyre/texgyrepagella-bold.otf
p1728
sg20
g21
sbag1
(g8
g3
NtRp1729
(dp1730
g11
g12
sg13
VMathJax_WinIE6
p1731
sg15
I400
sg16
g12
sg17
g12
sg18
V/usr/share/fonts/opentype/mathjax/MathJax_WinIE6-Regular.otf
p1732
sg20
g21
sbag1
(g8
g3
NtRp1733
(dp1734
g11
g12
sg13
VOpenSymbol
p1735
sg15
I400
sg16
g12
sg17
g12
sg18
V/usr/share/fonts/truetype/openoffice/opens___.ttf
p1736
sg20
g21
sbag1
(g8
g3
NtRp1737
(dp1738
g11
g12
sg13
VLatin Modern Mono Prop Light
p1739
sg15
I400
sg16
g12
sg17
g12
sg18
V/usr/share/texmf/fonts/opentype/public/lm/lmmonoproplt10-regular.otf
p1740
sg20
g21
sbag1
(g8
g3
NtRp1741
(dp1742
g11
g12
sg13
VLatin Modern Mono Light
p1743
sg15
I700
sg16
g12
sg17
g12
sg18
V/usr/share/texmf/fonts/opentype/public/lm/lmmonolt10-bold.otf
p1744
sg20
g21
sbag1
(g8
g3
NtRp1745
(dp1746
g11
g12
sg13
VGillius ADF No2
p1747
sg15
I700
sg16
g12
sg17
g12
sg18
V/usr/share/fonts/truetype/adf/GilliusADFNo2-Bold.otf
p1748
sg20
g21
sbag1
(g8
g3
NtRp1749
(dp1750
g11
g12
sg13
VTeX Gyre Termes
p1751
sg15
I700
sg16
g12
sg17
g12
sg18
V/usr/share/texmf/fonts/opentype/public/tex-gyre/texgyretermes-bold.otf
p1752
sg20
g21
sbag1
(g8
g3
NtRp1753
(dp1754
g11
g24
sg13
VRoboto
p1755
sg15
I700
sg16
g12
sg17
g12
sg18
V/usr/share/fonts/truetype/roboto/Roboto-BoldItalic.ttf
p1756
sg20
g21
sbag1
(g8
g3
NtRp1757
(dp1758
g11
g12
sg13
VGentiumAlt
p1759
sg15
I400
sg16
g12
sg17
g12
sg18
V/usr/share/fonts/truetype/gentium/GenAR102.ttf
p1760
sg20
g21
sbag1
(g8
g3
NtRp1761
(dp1762
g11
g24
sg13
VRoboto Condensed
p1763
sg15
I400
sg16
g275
sg17
g12
sg18
V/usr/share/fonts/truetype/roboto/RobotoCondensed-Italic.ttf
p1764
sg20
g21
sbag1
(g8
g3
NtRp1765
(dp1766
g11
g24
sg13
VDroid Serif
p1767
sg15
I400
sg16
g12
sg17
g12
sg18
V/usr/share/fonts/truetype/droid/DroidSerif-Italic.ttf
p1768
sg20
g21
sbag1
(g8
g3
NtRp1769
(dp1770
g11
g29
sg13
VLatin Modern Sans
p1771
sg15
I400
sg16
g12
sg17
g12
sg18
V/usr/share/texmf/fonts/opentype/public/lm/lmsans17-oblique.otf
p1772
sg20
g21
sbag1
(g8
g3
NtRp1773
(dp1774
g11
g12
sg13
VLatin Modern Roman
p1775
sg15
I700
sg16
g12
sg17
g12
sg18
V/usr/share/texmf/fonts/opentype/public/lm/lmroman9-bold.otf
p1776
sg20
g21
sbag1
(g8
g3
NtRp1777
(dp1778
g11
g12
sg13
VSTIXNonUnicode
p1779
sg15
I700
sg16
g12
sg17
g12
sg18
V/usr/share/fonts/opentype/stix/STIXNonUnicode-Bold.otf
p1780
sg20
g21
sbag1
(g8
g3
NtRp1781
(dp1782
g11
g24
sg13
VFreeSerif
p1783
sg15
I700
sg16
g12
sg17
g12
sg18
V/usr/share/fonts/truetype/freefont/FreeSerifBoldItalic.ttf
p1784
sg20
g21
sbag1
(g8
g3
NtRp1785
(dp1786
g11
g24
sg13
VGillius ADF Cd
p1787
sg15
I400
sg16
g12
sg17
g12
sg18
V/usr/share/fonts/truetype/adf/GilliusADFCd-Italic.otf
p1788
sg20
g21
sbag1
(g8
g3
NtRp1789
(dp1790
g11
g12
sg13
VLato
p1791
sg15
I200
sg16
g12
sg17
g12
sg18
V/usr/share/fonts/truetype/lato/Lato-Light.ttf
p1792
sg20
g21
sbag1
(g8
g3
NtRp1793
(dp1794
g11
g12
sg13
VLatin Modern Sans
p1795
sg15
I400
sg16
g12
sg17
g12
sg18
V/usr/share/texmf/fonts/opentype/public/lm/lmsans8-regular.otf
p1796
sg20
g21
sbag1
(g8
g3
NtRp1797
(dp1798
g11
g12
sg13
VSTIXSizeThreeSym
p1799
sg15
I700
sg16
g12
sg17
g12
sg18
V/usr/share/fonts/opentype/stix/STIXSizeThreeSym-Bold.otf
p1800
sg20
g21
sbag1
(g8
g3
NtRp1801
(dp1802
g11
g12
sg13
VEB Garamond Initials Fill2
p1803
sg15
I400
sg16
g12
sg17
g12
sg18
V/usr/share/fonts/opentype/ebgaramond/EBGaramond-InitialsF2.otf
p1804
sg20
g21
sbag1
(g8
g3
NtRp1805
(dp1806
g11
g24
sg13
VSTIX
p1807
sg15
I700
sg16
g12
sg17
g12
sg18
V/usr/share/fonts/opentype/stix-word/STIX-BoldItalic.otf
p1808
sg20
g21
sbag1
(g8
g3
NtRp1809
(dp1810
g11
g12
sg13
VTeX Gyre Termes Math
p1811
sg15
I400
sg16
g12
sg17
g12
sg18
V/usr/share/texmf/fonts/opentype/public/tex-gyre-math/texgyretermes-math.otf
p1812
sg20
g21
sbag1
(g8
g3
NtRp1813
(dp1814
g11
g12
sg13
VDroid Sans
p1815
sg15
I700
sg16
g12
sg17
g12
sg18
V/usr/share/fonts/truetype/droid/DroidSans-Bold.ttf
p1816
sg20
g21
sbag1
(g8
g3
NtRp1817
(dp1818
g11
g12
sg13
VGFS Neohellenic
p1819
sg15
I400
sg16
g12
sg17
g12
sg18
V/usr/share/fonts/truetype/neohellenic/GFSNeohellenic.otf
p1820
sg20
g21
sbag1
(g8
g3
NtRp1821
(dp1822
g11
g24
sg13
VLobster Two
p1823
sg15
I400
sg16
g12
sg17
g12
sg18
V/usr/share/fonts/opentype/lobstertwo/LobsterTwo-Italic.otf
p1824
sg20
g21
sbag1
(g8
g3
NtRp1825
(dp1826
g11
g12
sg13
VLatin Modern Roman Unslanted
p1827
sg15
I400
sg16
g12
sg17
g12
sg18
V/usr/share/texmf/fonts/opentype/public/lm/lmromanunsl10-regular.otf
p1828
sg20
g21
sbag1
(g8
g3
NtRp1829
(dp1830
g11
g29
sg13
VLatin Modern Sans
p1831
sg15
I400
sg16
g12
sg17
g12
sg18
V/usr/share/texmf/fonts/opentype/public/lm/lmsans9-oblique.otf
p1832
sg20
g21
sbag1
(g8
g3
NtRp1833
(dp1834
g11
g12
sg13
VGillius ADF No2
p1835
sg15
I400
sg16
g12
sg17
g12
sg18
V/usr/share/fonts/truetype/adf/GilliusADFNo2-Regular.otf
p1836
sg20
g21
sbag1
(g8
g3
NtRp1837
(dp1838
g11
g24
sg13
VRoboto Condensed
p1839
sg15
I700
sg16
g275
sg17
g12
sg18
V/usr/share/fonts/truetype/roboto/RobotoCondensed-BoldItalic.ttf
p1840
sg20
g21
sbag1
(g8
g3
NtRp1841
(dp1842
g11
g24
sg13
VLato
p1843
sg15
I700
sg16
g12
sg17
g12
sg18
V/usr/share/fonts/truetype/lato/Lato-SemiboldItalic.ttf
p1844
sg20
g21
sbag1
(g8
g3
NtRp1845
(dp1846
g11
g12
sg13
VGFS Didot Classic
p1847
sg15
I400
sg16
g12
sg17
g12
sg18
V/usr/share/fonts/truetype/didot-classic/GFSDidotClassic.otf
p1848
sg20
g21
sbag1
(g8
g3
NtRp1849
(dp1850
g11
g24
sg13
VLinux Biolinum O
p1851
sg15
I400
sg16
g12
sg17
g12
sg18
V/usr/share/fonts/opentype/linux-libertine/LinBiolinum_RI.otf
p1852
sg20
g21
sbag1
(g8
g3
NtRp1853
(dp1854
g11
g12
sg13
VTeX Gyre Bonum
p1855
sg15
I400
sg16
g12
sg17
g12
sg18
V/usr/share/texmf/fonts/opentype/public/tex-gyre/texgyrebonum-regular.otf
p1856
sg20
g21
sbag1
(g8
g3
NtRp1857
(dp1858
g11
g29
sg13
VFreeSans
p1859
sg15
I700
sg16
g12
sg17
g12
sg18
V/usr/share/fonts/opentype/freefont/FreeSansBoldOblique.otf
p1860
sg20
g21
sbag1
(g8
g3
NtRp1861
(dp1862
g11
g24
sg13
VFreeSerif
p1863
sg15
I700
sg16
g12
sg17
g12
sg18
V/usr/share/fonts/opentype/freefont/FreeSerifBoldItalic.otf
p1864
sg20
g21
sbag1
(g8
g3
NtRp1865
(dp1866
g11
g12
sg13
VSTIXIntegralsUpD
p1867
sg15
I700
sg16
g12
sg17
g12
sg18
V/usr/share/fonts/opentype/stix/STIXIntegralsUpD-Bold.otf
p1868
sg20
g21
sbag1
(g8
g3
NtRp1869
(dp1870
g11
g12
sg13
VEB Garamond
p1871
sg15
I400
sg16
g12
sg17
g12
sg18
V/usr/share/fonts/truetype/ebgaramond/EBGaramond08-SC.ttf
p1872
sg20
g21
sbag1
(g8
g3
NtRp1873
(dp1874
g11
g12
sg13
VMathJax_Caligraphic
p1875
sg15
I700
sg16
g12
sg17
g12
sg18
V/usr/share/fonts/opentype/mathjax/MathJax_Caligraphic-Bold.otf
p1876
sg20
g21
sbag1
(g8
g3
NtRp1877
(dp1878
g11
g12
sg13
VLatin Modern Roman
p1879
sg15
I400
sg16
g12
sg17
g12
sg18
V/usr/share/texmf/fonts/opentype/public/lm/lmroman9-regular.otf
p1880
sg20
g21
sbag1
(g8
g3
NtRp1881
(dp1882
g11
g12
sg13
VFreeMono
p1883
sg15
I700
sg16
g12
sg17
g12
sg18
V/usr/share/fonts/opentype/freefont/FreeMonoBold.otf
p1884
sg20
g21
sbag1
(g8
g3
NtRp1885
(dp1886
g11
g24
sg13
VMathJax_Math
p1887
sg15
I700
sg16
g12
sg17
g12
sg18
V/usr/share/fonts/opentype/mathjax/MathJax_Math-BoldItalic.otf
p1888
sg20
g21
sbag1
(g8
g3
NtRp1889
(dp1890
g11
g12
sg13
VDroid Sans Hebrew
p1891
sg15
I400
sg16
g12
sg17
g12
sg18
V/usr/share/fonts/truetype/droid/DroidSansHebrew-Regular.ttf
p1892
sg20
g21
sbasS'defaultFamily'
p1893
(dp1894
Vafm
p1895
VHelvetica
p1896
sVttf
p1897
VBitstream Vera Sans
p1898
ssS'ttffiles'
p1899
(lp1900
g19
ag26
ag31
ag35
ag39
ag43
ag47
ag51
ag55
ag59
ag63
ag67
ag71
ag75
ag79
ag83
ag87
ag91
ag95
ag99
ag103
ag107
ag111
ag115
ag119
ag123
ag127
ag131
ag135
ag139
ag143
ag147
ag151
ag155
ag159
ag163
ag167
ag171
ag175
ag179
ag183
ag187
ag191
ag195
ag199
ag203
ag207
ag211
ag215
ag219
ag223
ag227
ag231
ag235
ag239
ag243
ag247
ag251
ag255
ag259
ag263
ag267
ag271
ag276
ag280
ag284
ag288
ag292
ag296
ag300
ag304
ag308
ag312
ag316
ag320
ag324
ag328
ag332
ag336
ag340
ag344
ag348
ag352
ag356
ag360
ag364
ag368
ag372
ag376
ag380
ag384
ag388
ag392
ag396
ag400
ag404
ag408
ag412
ag416
ag420
ag424
ag428
ag432
ag436
ag440
ag444
ag448
ag452
ag456
ag460
aV/usr/share/fonts/truetype/lyx/cmsy10.ttf
p1901
ag464
ag468
ag472
ag476
ag480
ag484
ag488
ag492
ag496
ag500
ag504
ag508
ag512
ag516
ag520
ag524
ag528
aV/usr/share/fonts/truetype/liberation/LiberationSerif-Regular.ttf
p1902
ag532
ag536
ag540
ag544
ag548
ag552
ag556
ag560
ag564
ag568
aV/usr/share/fonts/truetype/lyx/cmmi10.ttf
p1903
ag572
ag576
ag580
ag584
ag588
ag592
ag596
ag600
ag604
ag608
ag612
ag616
ag620
ag624
ag628
ag632
ag636
ag640
ag644
ag648
aV/usr/share/fonts/truetype/ttf-liberation/LiberationSans-Italic.ttf
p1904
ag652
ag656
ag660
ag664
ag668
ag672
ag676
ag680
ag684
ag688
ag692
ag696
ag700
ag704
ag708
ag712
ag716
ag720
aV/usr/share/fonts/truetype/liberation/LiberationSerif-Bold.ttf
p1905
ag724
ag728
ag732
ag736
ag740
ag744
ag748
ag752
ag756
ag760
ag764
ag768
ag772
ag776
ag780
ag784
ag788
ag792
ag796
ag800
ag804
ag808
ag812
ag816
ag820
ag824
ag828
ag832
ag836
ag840
ag844
ag848
ag852
ag856
ag860
ag864
ag868
ag872
ag876
ag880
ag884
ag888
ag892
ag896
ag900
ag904
ag908
ag912
ag916
ag920
ag924
ag928
ag932
ag936
ag940
ag944
ag948
ag952
ag956
ag960
ag964
ag968
ag972
ag976
ag980
ag984
ag988
ag992
ag996
ag1000
ag1004
ag1008
ag1012
ag1016
ag1020
ag1024
ag1028
ag1032
ag1036
ag1040
ag1044
ag1048
aV/usr/share/fonts/truetype/ttf-liberation/LiberationSansNarrow-Regular.ttf
p1906
ag1052
ag1056
ag1060
ag1064
ag1068
ag1072
ag1076
ag1080
ag1084
ag1088
ag1092
ag1096
ag1100
ag1104
ag1108
ag1112
ag1116
ag1120
ag1124
ag1128
ag1132
ag1136
ag1140
ag1144
ag1148
ag1152
ag1156
ag1160
ag1164
ag1168
ag1172
ag1176
ag1180
ag1184
ag1188
ag1192
aV/usr/share/fonts/truetype/ttf-liberation/LiberationSans-BoldItalic.ttf
p1907
ag1196
ag1200
ag1204
ag1208
ag1212
ag1216
ag1220
ag1224
ag1228
ag1232
ag1236
ag1240
ag1244
ag1248
ag1252
ag1256
ag1260
ag1264
ag1268
ag1272
ag1276
ag1280
ag1284
ag1288
ag1292
ag1296
ag1300
ag1304
ag1308
ag1312
ag1316
ag1320
ag1324
ag1328
ag1332
ag1336
ag1340
ag1344
ag1348
ag1352
ag1356
ag1360
aV/usr/share/fonts/truetype/liberation/LiberationSans-Regular.ttf
p1908
ag1364
ag1368
ag1372
ag1376
ag1380
ag1384
ag1388
ag1392
ag1396
ag1400
ag1404
ag1408
ag1412
ag1416
ag1420
aV/usr/share/fonts/truetype/ttf-liberation/LiberationSerif-BoldItalic.ttf
p1909
ag1424
aV/usr/share/fonts/truetype/lyx/cmex10.ttf
p1910
ag1428
ag1432
ag1436
ag1440
ag1444
ag1448
ag1452
ag1456
ag1460
ag1464
ag1468
ag1472
ag1476
ag1480
ag1484
ag1488
aV/usr/share/fonts/truetype/liberation/LiberationSansNarrow-Italic.ttf
p1911
aV/usr/share/fonts/truetype/lyx/cmr10.ttf
p1912
ag1492
ag1496
ag1500
ag1504
ag1508
aV/usr/share/fonts/truetype/ttf-liberation/LiberationMono-Bold.ttf
p1913
ag1512
ag1516
ag1520
ag1524
ag1528
ag1532
ag1536
ag1540
aV/usr/share/fonts/truetype/ttf-liberation/LiberationMono-Italic.ttf
p1914
ag1544
ag1548
ag1552
ag1556
ag1560
aV/usr/share/fonts/truetype/liberation/LiberationSans-Bold.ttf
p1915
ag1564
ag1568
ag1572
ag1576
ag1580
ag1584
ag1588
ag1592
ag1596
ag1600
ag1604
ag1608
ag1612
ag1616
ag1620
ag1624
ag1628
ag1632
ag1636
ag1640
ag1644
aV/usr/share/fonts/truetype/ttf-liberation/LiberationSansNarrow-BoldItalic.ttf
p1916
ag1648
ag1652
ag1656
ag1660
ag1664
ag1668
ag1672
ag1676
ag1680
ag1684
ag1688
ag1692
ag1696
ag1700
ag1704
ag1708
ag1712
ag1716
ag1720
ag1724
ag1728
ag1732
ag1736
ag1740
ag1744
ag1748
ag1752
ag1756
ag1760
ag1764
ag1768
ag1772
ag1776
aV/usr/share/fonts/truetype/liberation/LiberationSerif-Italic.ttf
p1917
ag1780
ag1784
ag1788
ag1792
ag1796
ag1800
ag1804
ag1808
aV/usr/share/fonts/truetype/ttf-liberation/LiberationSansNarrow-Bold.ttf
p1918
ag1812
ag1816
ag1820
ag1824
ag1828
ag1832
ag1836
ag1840
aV/usr/share/fonts/truetype/ttf-liberation/LiberationMono-Regular.ttf
p1919
ag1844
ag1848
ag1852
ag1856
ag1860
aV/usr/share/fonts/truetype/ttf-liberation/LiberationMono-BoldItalic.ttf
p1920
ag1864
ag1868
ag1872
ag1876
ag1880
ag1884
ag1888
ag1892
asS'_FontManager__default_weight'
p1921
Vnormal
p1922
sS'_version'
p1923
I101
sS'default_size'
p1924
NsS'defaultFont'
p1925
(dp1926
g1895
V/projects/sage/sage-7.5/local/lib/python2.7/site-packages/matplotlib/mpl-data/fonts/afm/ptmr8a.afm
p1927
sg1897
g59
ssS'afmfiles'
p1928
(lp1929
g1927
aV/projects/sage/sage-7.5/local/lib/python2.7/site-packages/matplotlib/mpl-data/fonts/afm/pbkli8a.afm
p1930
aV/projects/sage/sage-7.5/local/lib/python2.7/site-packages/matplotlib/mpl-data/fonts/pdfcorefonts/Times-Roman.afm
p1931
aV/projects/sage/sage-7.5/local/lib/python2.7/site-packages/matplotlib/mpl-data/fonts/afm/cmr10.afm
p1932
aV/projects/sage/sage-7.5/local/lib/python2.7/site-packages/matplotlib/mpl-data/fonts/afm/pcrro8a.afm
p1933
aV/projects/sage/sage-7.5/local/lib/python2.7/site-packages/matplotlib/mpl-data/fonts/afm/pzdr.afm
p1934
aV/projects/sage/sage-7.5/local/lib/python2.7/site-packages/matplotlib/mpl-data/fonts/pdfcorefonts/Courier-Oblique.afm
p1935
aV/projects/sage/sage-7.5/local/lib/python2.7/site-packages/matplotlib/mpl-data/fonts/afm/ptmb8a.afm
p1936
aV/projects/sage/sage-7.5/local/lib/python2.7/site-packages/matplotlib/mpl-data/fonts/afm/pagd8a.afm
p1937
aV/projects/sage/sage-7.5/local/lib/python2.7/site-packages/matplotlib/mpl-data/fonts/pdfcorefonts/Times-Bold.afm
p1938
aV/projects/sage/sage-7.5/local/lib/python2.7/site-packages/matplotlib/mpl-data/fonts/pdfcorefonts/Helvetica-Oblique.afm
p1939
aV/projects/sage/sage-7.5/local/lib/python2.7/site-packages/matplotlib/mpl-data/fonts/afm/cmtt10.afm
p1940
aV/projects/sage/sage-7.5/local/lib/python2.7/site-packages/matplotlib/mpl-data/fonts/afm/putr8a.afm
p1941
aV/projects/sage/sage-7.5/local/lib/python2.7/site-packages/matplotlib/mpl-data/fonts/pdfcorefonts/Symbol.afm
p1942
aV/projects/sage/sage-7.5/local/lib/python2.7/site-packages/matplotlib/mpl-data/fonts/pdfcorefonts/Helvetica.afm
p1943
aV/projects/sage/sage-7.5/local/lib/python2.7/site-packages/matplotlib/mpl-data/fonts/afm/ptmri8a.afm
p1944
aV/projects/sage/sage-7.5/local/lib/python2.7/site-packages/matplotlib/mpl-data/fonts/afm/phvro8a.afm
p1945
aV/projects/sage/sage-7.5/local/lib/python2.7/site-packages/matplotlib/mpl-data/fonts/afm/putri8a.afm
p1946
aV/projects/sage/sage-7.5/local/lib/python2.7/site-packages/matplotlib/mpl-data/fonts/afm/phvr8a.afm
p1947
aV/projects/sage/sage-7.5/local/lib/python2.7/site-packages/matplotlib/mpl-data/fonts/pdfcorefonts/Helvetica-BoldOblique.afm
p1948
aV/projects/sage/sage-7.5/local/lib/python2.7/site-packages/matplotlib/mpl-data/fonts/afm/pcrb8a.afm
p1949
aV/projects/sage/sage-7.5/local/lib/python2.7/site-packages/matplotlib/mpl-data/fonts/afm/pncbi8a.afm
p1950
aV/projects/sage/sage-7.5/local/lib/python2.7/site-packages/matplotlib/mpl-data/fonts/afm/pplri8a.afm
p1951
aV/projects/sage/sage-7.5/local/lib/python2.7/site-packages/matplotlib/mpl-data/fonts/afm/pncb8a.afm
p1952
aV/projects/sage/sage-7.5/local/lib/python2.7/site-packages/matplotlib/mpl-data/fonts/afm/pbkdi8a.afm
p1953
aV/projects/sage/sage-7.5/local/lib/python2.7/site-packages/matplotlib/mpl-data/fonts/afm/pagdo8a.afm
p1954
aV/projects/sage/sage-7.5/local/lib/python2.7/site-packages/matplotlib/mpl-data/fonts/afm/ptmbi8a.afm
p1955
aV/projects/sage/sage-7.5/local/lib/python2.7/site-packages/matplotlib/mpl-data/fonts/pdfcorefonts/ZapfDingbats.afm
p1956
aV/projects/sage/sage-7.5/local/lib/python2.7/site-packages/matplotlib/mpl-data/fonts/afm/pcrbo8a.afm
p1957
aV/projects/sage/sage-7.5/local/lib/python2.7/site-packages/matplotlib/mpl-data/fonts/afm/pplr8a.afm
p1958
aV/projects/sage/sage-7.5/local/lib/python2.7/site-packages/matplotlib/mpl-data/fonts/afm/pbkd8a.afm
p1959
aV/projects/sage/sage-7.5/local/lib/python2.7/site-packages/matplotlib/mpl-data/fonts/afm/putb8a.afm
p1960
aV/projects/sage/sage-7.5/local/lib/python2.7/site-packages/matplotlib/mpl-data/fonts/afm/pzcmi8a.afm
p1961
aV/projects/sage/sage-7.5/local/lib/python2.7/site-packages/matplotlib/mpl-data/fonts/afm/pagko8a.afm
p1962
aV/projects/sage/sage-7.5/local/lib/python2.7/site-packages/matplotlib/mpl-data/fonts/pdfcorefonts/Times-Italic.afm
p1963
aV/projects/sage/sage-7.5/local/lib/python2.7/site-packages/matplotlib/mpl-data/fonts/pdfcorefonts/Courier-Bold.afm
p1964
aV/projects/sage/sage-7.5/local/lib/python2.7/site-packages/matplotlib/mpl-data/fonts/afm/phvro8an.afm
p1965
aV/projects/sage/sage-7.5/local/lib/python2.7/site-packages/matplotlib/mpl-data/fonts/pdfcorefonts/Helvetica-Bold.afm
p1966
aV/projects/sage/sage-7.5/local/lib/python2.7/site-packages/matplotlib/mpl-data/fonts/afm/pplb8a.afm
p1967
aV/projects/sage/sage-7.5/local/lib/python2.7/site-packages/matplotlib/mpl-data/fonts/pdfcorefonts/Courier-BoldOblique.afm
p1968
aV/projects/sage/sage-7.5/local/lib/python2.7/site-packages/matplotlib/mpl-data/fonts/afm/pagk8a.afm
p1969
aV/projects/sage/sage-7.5/local/lib/python2.7/site-packages/matplotlib/mpl-data/fonts/afm/phvb8a.afm
p1970
aV/projects/sage/sage-7.5/local/lib/python2.7/site-packages/matplotlib/mpl-data/fonts/afm/cmsy10.afm
p1971
aV/projects/sage/sage-7.5/local/lib/python2.7/site-packages/matplotlib/mpl-data/fonts/afm/pcrr8a.afm
p1972
aV/projects/sage/sage-7.5/local/lib/python2.7/site-packages/matplotlib/mpl-data/fonts/afm/cmmi10.afm
p1973
aV/projects/sage/sage-7.5/local/lib/python2.7/site-packages/matplotlib/mpl-data/fonts/afm/pncri8a.afm
p1974
aV/projects/sage/sage-7.5/local/lib/python2.7/site-packages/matplotlib/mpl-data/fonts/pdfcorefonts/Times-BoldItalic.afm
p1975
aV/projects/sage/sage-7.5/local/lib/python2.7/site-packages/matplotlib/mpl-data/fonts/afm/pplbi8a.afm
p1976
aV/projects/sage/sage-7.5/local/lib/python2.7/site-packages/matplotlib/mpl-data/fonts/afm/cmex10.afm
p1977
aV/projects/sage/sage-7.5/local/lib/python2.7/site-packages/matplotlib/mpl-data/fonts/afm/phvlo8a.afm
p1978
aV/projects/sage/sage-7.5/local/lib/python2.7/site-packages/matplotlib/mpl-data/fonts/pdfcorefonts/Courier.afm
p1979
aV/projects/sage/sage-7.5/local/lib/python2.7/site-packages/matplotlib/mpl-data/fonts/afm/pbkl8a.afm
p1980
aV/projects/sage/sage-7.5/local/lib/python2.7/site-packages/matplotlib/mpl-data/fonts/afm/phvr8an.afm
p1981
aV/projects/sage/sage-7.5/local/lib/python2.7/site-packages/matplotlib/mpl-data/fonts/afm/phvbo8a.afm
p1982
aV/projects/sage/sage-7.5/local/lib/python2.7/site-packages/matplotlib/mpl-data/fonts/afm/phvl8a.afm
p1983
aV/projects/sage/sage-7.5/local/lib/python2.7/site-packages/matplotlib/mpl-data/fonts/afm/putbi8a.afm
p1984
aV/projects/sage/sage-7.5/local/lib/python2.7/site-packages/matplotlib/mpl-data/fonts/afm/psyr.afm
p1985
aV/projects/sage/sage-7.5/local/lib/python2.7/site-packages/matplotlib/mpl-data/fonts/afm/phvbo8an.afm
p1986
aV/projects/sage/sage-7.5/local/lib/python2.7/site-packages/matplotlib/mpl-data/fonts/afm/pncr8a.afm
p1987
aV/projects/sage/sage-7.5/local/lib/python2.7/site-packages/matplotlib/mpl-data/fonts/afm/phvb8an.afm
p1988
aV/usr/share/fonts/X11/Type1/lmtt10.afm
p1989
aV/usr/share/fonts/X11/Type1/qcsri.afm
p1990
aV/usr/share/fonts/X11/Type1/lmssqo8.afm
p1991
aV/usr/share/fonts/type1/texlive-fonts-recommended/uhvro8ac.afm
p1992
aV/usr/share/fonts/type1/gsfonts/b018015l.afm
p1993
aV/usr/share/fonts/X11/Type1/lmbxo10.afm
p1994
aV/usr/share/fonts/type1/texlive-fonts-recommended/pcrro8a.afm
p1995
aV/usr/share/fonts/type1/texlive-fonts-recommended/uplbi8a.afm
p1996
aV/usr/share/fonts/type1/gsfonts/n022024l.afm
p1997
aV/usr/share/fonts/X11/Type1/lmtlc10.afm
p1998
aV/usr/share/fonts/X11/Type1/lmtk10.afm
p1999
aV/usr/share/fonts/X11/Type1/qbkr.afm
p2000
aV/usr/share/fonts/X11/Type1/lmdunh10.afm
p2001
aV/usr/share/fonts/type1/gsfonts/n019003l.afm
p2002
aV/usr/share/fonts/type1/texlive-fonts-recommended/ucrro8a.afm
p2003
aV/usr/share/fonts/type1/texlive-fonts-recommended/ubkli8a.afm
p2004
aV/usr/share/fonts/type1/gsfonts/p052004l.afm
p2005
aV/usr/share/fonts/type1/texlive-fonts-recommended/uagk8a.afm
p2006
aV/usr/share/fonts/type1/texlive-fonts-recommended/uhvro8a.afm
p2007
aV/usr/share/fonts/X11/Type1/qcrr.afm
p2008
aV/usr/share/fonts/type1/texlive-fonts-recommended/ubkdi8a.afm
p2009
aV/usr/share/fonts/type1/gsfonts/c059036l.afm
p2010
aV/usr/share/fonts/type1/texlive-fonts-recommended/uncb8a.afm
p2011
aV/usr/share/fonts/type1/gsfonts/c059013l.afm
p2012
aV/usr/share/fonts/X11/Type1/lmssbx10.afm
p2013
aV/usr/share/fonts/X11/Type1/qhvcb.afm
p2014
aV/usr/share/fonts/X11/Type1/qtmb.afm
p2015
aV/usr/share/fonts/X11/Type1/lmvtlo10.afm
p2016
aV/usr/share/fonts/X11/Type1/lmtcso10.afm
p2017
aV/usr/share/fonts/X11/Type1/lmtti10.afm
p2018
aV/usr/share/fonts/type1/gsfonts/n021024l.afm
p2019
aV/usr/share/fonts/type1/gsfonts/n019024l.afm
p2020
aV/usr/share/fonts/X11/Type1/qhvbi.afm
p2021
aV/usr/share/fonts/X11/Type1/qcsb.afm
p2022
aV/usr/share/fonts/X11/Type1/lmbx10.afm
p2023
aV/usr/share/fonts/type1/gsfonts/d050000l.afm
p2024
aV/usr/share/fonts/X11/Type1/lmssdo10.afm
p2025
aV/usr/share/fonts/X11/Type1/lmssqbx8.afm
p2026
aV/usr/share/fonts/X11/Type1/qhvb.afm
p2027
aV/usr/share/fonts/X11/Type1/lmb10.afm
p2028
aV/usr/share/fonts/type1/texlive-fonts-recommended/putri8a.afm
p2029
aV/usr/share/fonts/type1/texlive-fonts-recommended/ucrr8a.afm
p2030
aV/usr/share/fonts/type1/gsfonts/n019044l.afm
p2031
aV/usr/share/fonts/type1/gsfonts/z003034l.afm
p2032
aV/usr/share/fonts/type1/texlive-fonts-recommended/uhvr8a.afm
p2033
aV/usr/share/fonts/X11/Type1/qhvr.afm
p2034
aV/usr/share/fonts/X11/Type1/lmbxi10.afm
p2035
aV/usr/share/fonts/type1/texlive-fonts-recommended/putb8a.afm
p2036
aV/usr/share/fonts/type1/texlive-fonts-recommended/putr8a.afm
p2037
aV/usr/share/fonts/type1/gsfonts/b018012l.afm
p2038
aV/usr/share/fonts/X11/Type1/lmro10.afm
p2039
aV/usr/share/fonts/X11/Type1/qplr.afm
p2040
aV/usr/share/fonts/type1/texlive-fonts-recommended/uhvbo8a.afm
p2041
aV/usr/share/fonts/X11/Type1/qcsr.afm
p2042
aV/usr/share/fonts/type1/texlive-fonts-recommended/uplri8a.afm
p2043
aV/usr/share/fonts/type1/texlive-fonts-recommended/utmri8a.afm
p2044
aV/usr/share/fonts/type1/gsfonts/a010013l.afm
p2045
aV/usr/share/fonts/type1/texlive-fonts-recommended/ucrb8a.afm
p2046
aV/usr/share/fonts/X11/Type1/qagri.afm
p2047
aV/usr/share/fonts/X11/Type1/qbkbi.afm
p2048
aV/usr/share/fonts/type1/texlive-fonts-recommended/bchbi8a.afm
p2049
aV/usr/share/fonts/type1/texlive-fonts-recommended/uncbi8a.afm
p2050
aV/usr/share/fonts/X11/Type1/lmcsc10.afm
p2051
aV/usr/share/fonts/type1/texlive-fonts-recommended/ubkl8a.afm
p2052
aV/usr/share/fonts/X11/Type1/qcrbi.afm
p2053
aV/usr/share/fonts/X11/Type1/qcrb.afm
p2054
aV/usr/share/fonts/X11/Type1/lmssqbo8.afm
p2055
aV/usr/share/fonts/type1/gsfonts/p052003l.afm
p2056
aV/usr/share/fonts/type1/gsfonts/b018032l.afm
p2057
aV/usr/share/fonts/X11/Type1/lmvtk10.afm
p2058
aV/usr/share/fonts/type1/gsfonts/n021023l.afm
p2059
aV/usr/share/fonts/X11/Type1/qhvri.afm
p2060
aV/usr/share/fonts/X11/Type1/lmtlo10.afm
p2061
aV/usr/share/fonts/X11/Type1/lmvtl10.afm
p2062
aV/usr/share/fonts/type1/gsfonts/n021003l.afm
p2063
aV/usr/share/fonts/X11/Type1/lmsso10.afm
p2064
aV/usr/share/fonts/type1/gsfonts/s050000l.afm
p2065
aV/usr/share/fonts/type1/gsfonts/n021004l.afm
p2066
aV/usr/share/fonts/type1/gsfonts/p052024l.afm
p2067
aV/usr/share/fonts/X11/Type1/qtmri.afm
p2068
aV/usr/share/fonts/type1/texlive-fonts-recommended/uncr8a.afm
p2069
aV/usr/share/fonts/X11/Type1/qbkb.afm
p2070
aV/usr/share/fonts/type1/texlive-fonts-recommended/putbi8a.afm
p2071
aV/usr/share/fonts/type1/gsfonts/n019063l.afm
p2072
aV/usr/share/fonts/X11/Type1/qtmr.afm
p2073
aV/usr/share/fonts/X11/Type1/lmtcsc10.afm
p2074
aV/usr/share/fonts/X11/Type1/lmcsco10.afm
p2075
aV/usr/share/fonts/X11/Type1/qagb.afm
p2076
aV/usr/share/fonts/X11/Type1/lmvtto10.afm
p2077
aV/usr/share/fonts/type1/texlive-fonts-recommended/pcrbo8a.afm
p2078
aV/usr/share/fonts/X11/Type1/lmss10.afm
p2079
aV/usr/share/fonts/X11/Type1/lmvtt10.afm
p2080
aV/usr/share/fonts/type1/gsfonts/b018035l.afm
p2081
aV/usr/share/fonts/X11/Type1/lmduno10.afm
p2082
aV/usr/share/fonts/X11/Type1/qtmbi.afm
p2083
aV/usr/share/fonts/X11/Type1/qcsbi.afm
p2084
aV/usr/share/fonts/type1/texlive-fonts-recommended/pcrb8a.afm
p2085
aV/usr/share/fonts/type1/gsfonts/n022004l.afm
p2086
aV/usr/share/fonts/X11/Type1/qhvcbi.afm
p2087
aV/usr/share/fonts/type1/texlive-fonts-recommended/utmbi8a.afm
p2088
aV/usr/share/fonts/type1/texlive-fonts-recommended/uhvr8ac.afm
p2089
aV/usr/share/fonts/type1/texlive-fonts-recommended/uzcmi8a.afm
p2090
aV/usr/share/fonts/type1/texlive-fonts-recommended/uagd8a.afm
p2091
aV/usr/share/fonts/X11/Type1/lmri10.afm
p2092
aV/usr/share/fonts/type1/gsfonts/n019004l.afm
p2093
aV/usr/share/fonts/X11/Type1/lmr10.afm
p2094
aV/usr/share/fonts/type1/gsfonts/a010015l.afm
p2095
aV/usr/share/fonts/type1/texlive-fonts-recommended/uncri8a.afm
p2096
aV/usr/share/fonts/X11/Type1/lmtl10.afm
p2097
aV/usr/share/fonts/type1/texlive-fonts-recommended/usyr.afm
p2098
aV/usr/share/fonts/type1/texlive-fonts-recommended/uhvbo8ac.afm
p2099
aV/usr/share/fonts/X11/Type1/qplri.afm
p2100
aV/usr/share/fonts/X11/Type1/qagbi.afm
p2101
aV/usr/share/fonts/X11/Type1/qhvcr.afm
p2102
aV/usr/share/fonts/X11/Type1/lmtlco10.afm
p2103
aV/usr/share/fonts/type1/gsfonts/c059016l.afm
p2104
aV/usr/share/fonts/X11/Type1/qplb.afm
p2105
aV/usr/share/fonts/type1/gsfonts/n022003l.afm
p2106
aV/usr/share/fonts/type1/gsfonts/a010033l.afm
p2107
aV/usr/share/fonts/X11/Type1/lmvtko10.afm
p2108
aV/usr/share/fonts/type1/texlive-fonts-recommended/bchri8a.afm
p2109
aV/usr/share/fonts/type1/texlive-fonts-recommended/bchb8a.afm
p2110
aV/usr/share/fonts/type1/gsfonts/n019043l.afm
p2111
aV/usr/share/fonts/type1/texlive-fonts-recommended/uplb8a.afm
p2112
aV/usr/share/fonts/X11/Type1/qcrri.afm
p2113
aV/usr/share/fonts/type1/texlive-fonts-recommended/ucrbo8a.afm
p2114
aV/usr/share/fonts/type1/gsfonts/n019064l.afm
p2115
aV/usr/share/fonts/type1/texlive-fonts-recommended/ubkd8a.afm
p2116
aV/usr/share/fonts/type1/texlive-fonts-recommended/uagko8a.afm
p2117
aV/usr/share/fonts/type1/texlive-fonts-recommended/uplr8a.afm
p2118
aV/usr/share/fonts/type1/texlive-fonts-recommended/uhvb8ac.afm
p2119
aV/usr/share/fonts/type1/texlive-fonts-recommended/utmb8a.afm
p2120
aV/usr/share/fonts/type1/texlive-fonts-recommended/uhvb8a.afm
p2121
aV/usr/share/fonts/X11/Type1/lmssq8.afm
p2122
aV/usr/share/fonts/X11/Type1/lmssbo10.afm
p2123
aV/usr/share/fonts/type1/texlive-fonts-recommended/pcrr8a.afm
p2124
aV/usr/share/fonts/X11/Type1/qagr.afm
p2125
aV/usr/share/fonts/type1/gsfonts/c059033l.afm
p2126
aV/usr/share/fonts/type1/texlive-fonts-recommended/utmr8a.afm
p2127
aV/usr/share/fonts/type1/texlive-fonts-recommended/bchr8a.afm
p2128
aV/usr/share/fonts/type1/gsfonts/n019023l.afm
p2129
aV/usr/share/fonts/X11/Type1/lmtko10.afm
p2130
aV/usr/share/fonts/X11/Type1/qzcmi.afm
p2131
aV/usr/share/fonts/X11/Type1/lmbo10.afm
p2132
aV/usr/share/fonts/type1/gsfonts/p052023l.afm
p2133
aV/usr/share/fonts/X11/Type1/qplbi.afm
p2134
aV/usr/share/fonts/type1/texlive-fonts-recommended/uagdo8a.afm
p2135
aV/usr/share/fonts/X11/Type1/lmssdc10.afm
p2136
aV/usr/share/fonts/X11/Type1/lmtto10.afm
p2137
aV/usr/share/fonts/type1/gsfonts/n022023l.afm
p2138
aV/usr/share/fonts/X11/Type1/qhvcri.afm
p2139
aV/usr/share/fonts/type1/gsfonts/a010035l.afm
p2140
aV/usr/share/fonts/X11/Type1/qbkri.afm
p2141
aV/usr/share/fonts/type1/texlive-fonts-recommended/uzdr.afm
p2142
aV/usr/share/fonts/X11/Type1/lmu10.afm
p2143
asS'afmlist'
p2144
(lp2145
g1
(g8
g3
NtRp2146
(dp2147
g11
Vnormal
p2148
sg13
S'Times'
p2149
sg15
I500
sg16
g2148
sg17
g2148
sg18
g1927
sg20
Vscalable
p2150
sbag1
(g8
g3
NtRp2151
(dp2152
g11
Vitalic
p2153
sg13
S'ITC Bookman'
p2154
sg15
I200
sg16
g2148
sg17
g2148
sg18
g1930
sg20
g2150
sbag1
(g8
g3
NtRp2155
(dp2156
g11
g2148
sg13
S'Times'
p2157
sg15
I500
sg16
g2148
sg17
g2148
sg18
g1931
sg20
g2150
sbag1
(g8
g3
NtRp2158
(dp2159
g11
g2148
sg13
S'Computer Modern'
p2160
sg15
I500
sg16
g2148
sg17
g2148
sg18
g1932
sg20
g2150
sbag1
(g8
g3
NtRp2161
(dp2162
g11
g2153
sg13
S'Courier'
p2163
sg15
I500
sg16
g2148
sg17
g2148
sg18
g1933
sg20
g2150
sbag1
(g8
g3
NtRp2164
(dp2165
g11
g2148
sg13
S'ITC Zapf Dingbats'
p2166
sg15
I500
sg16
g2148
sg17
g2148
sg18
g1934
sg20
g2150
sbag1
(g8
g3
NtRp2167
(dp2168
g11
g2153
sg13
S'Courier'
p2169
sg15
I500
sg16
g2148
sg17
g2148
sg18
g1935
sg20
g2150
sbag1
(g8
g3
NtRp2170
(dp2171
g11
g2148
sg13
S'Times'
p2172
sg15
I700
sg16
g2148
sg17
g2148
sg18
g1936
sg20
g2150
sbag1
(g8
g3
NtRp2173
(dp2174
g11
g2148
sg13
S'ITC Avant Garde Gothic'
p2175
sg15
I600
sg16
g2148
sg17
g2148
sg18
g1937
sg20
g2150
sbag1
(g8
g3
NtRp2176
(dp2177
g11
g2148
sg13
S'Times'
p2178
sg15
I700
sg16
g2148
sg17
g2148
sg18
g1938
sg20
g2150
sbag1
(g8
g3
NtRp2179
(dp2180
g11
g2153
sg13
S'Helvetica'
p2181
sg15
I500
sg16
g2148
sg17
g2148
sg18
g1939
sg20
g2150
sbag1
(g8
g3
NtRp2182
(dp2183
g11
g2148
sg13
S'Computer Modern'
p2184
sg15
I500
sg16
g2148
sg17
g2148
sg18
g1940
sg20
g2150
sbag1
(g8
g3
NtRp2185
(dp2186
g11
g2148
sg13
S'Utopia'
p2187
sg15
I400
sg16
g2148
sg17
g2148
sg18
g1941
sg20
g2150
sbag1
(g8
g3
NtRp2188
(dp2189
g11
g2148
sg13
S'Symbol'
p2190
sg15
I500
sg16
g2148
sg17
g2148
sg18
g1942
sg20
g2150
sbag1
(g8
g3
NtRp2191
(dp2192
g11
g2148
sg13
S'Helvetica'
p2193
sg15
I500
sg16
g2148
sg17
g2148
sg18
g1943
sg20
g2150
sbag1
(g8
g3
NtRp2194
(dp2195
g11
g2153
sg13
S'Times'
p2196
sg15
I500
sg16
g2148
sg17
g2148
sg18
g1944
sg20
g2150
sbag1
(g8
g3
NtRp2197
(dp2198
g11
g2153
sg13
S'Helvetica'
p2199
sg15
I500
sg16
g2148
sg17
g2148
sg18
g1945
sg20
g2150
sbag1
(g8
g3
NtRp2200
(dp2201
g11
g2153
sg13
S'Utopia'
p2202
sg15
I400
sg16
g2148
sg17
g2148
sg18
g1946
sg20
g2150
sbag1
(g8
g3
NtRp2203
(dp2204
g11
g2148
sg13
S'Helvetica'
p2205
sg15
I500
sg16
g2148
sg17
g2148
sg18
g1947
sg20
g2150
sbag1
(g8
g3
NtRp2206
(dp2207
g11
g2153
sg13
S'Helvetica'
p2208
sg15
I700
sg16
g2148
sg17
g2148
sg18
g1948
sg20
g2150
sbag1
(g8
g3
NtRp2209
(dp2210
g11
g2148
sg13
S'Courier'
p2211
sg15
I700
sg16
g2148
sg17
g2148
sg18
g1949
sg20
g2150
sbag1
(g8
g3
NtRp2212
(dp2213
g11
g2153
sg13
S'New Century Schoolbook'
p2214
sg15
I700
sg16
g2148
sg17
g2148
sg18
g1950
sg20
g2150
sbag1
(g8
g3
NtRp2215
(dp2216
g11
g2153
sg13
S'Palatino'
p2217
sg15
I500
sg16
g2148
sg17
g2148
sg18
g1951
sg20
g2150
sbag1
(g8
g3
NtRp2218
(dp2219
g11
g2148
sg13
S'New Century Schoolbook'
p2220
sg15
I700
sg16
g2148
sg17
g2148
sg18
g1952
sg20
g2150
sbag1
(g8
g3
NtRp2221
(dp2222
g11
g2153
sg13
S'ITC Bookman'
p2223
sg15
I600
sg16
g2148
sg17
g2148
sg18
g1953
sg20
g2150
sbag1
(g8
g3
NtRp2224
(dp2225
g11
g2153
sg13
S'ITC Avant Garde Gothic'
p2226
sg15
I600
sg16
g2148
sg17
g2148
sg18
g1954
sg20
g2150
sbag1
(g8
g3
NtRp2227
(dp2228
g11
g2153
sg13
S'Times'
p2229
sg15
I700
sg16
g2148
sg17
g2148
sg18
g1955
sg20
g2150
sbag1
(g8
g3
NtRp2230
(dp2231
g11
g2148
sg13
S'ZapfDingbats'
p2232
sg15
I500
sg16
g2148
sg17
g2148
sg18
g1956
sg20
g2150
sbag1
(g8
g3
NtRp2233
(dp2234
g11
g2153
sg13
S'Courier'
p2235
sg15
I700
sg16
g2148
sg17
g2148
sg18
g1957
sg20
g2150
sbag1
(g8
g3
NtRp2236
(dp2237
g11
g2148
sg13
S'Palatino'
p2238
sg15
I500
sg16
g2148
sg17
g2148
sg18
g1958
sg20
g2150
sbag1
(g8
g3
NtRp2239
(dp2240
g11
g2148
sg13
S'ITC Bookman'
p2241
sg15
I600
sg16
g2148
sg17
g2148
sg18
g1959
sg20
g2150
sbag1
(g8
g3
NtRp2242
(dp2243
g11
g2148
sg13
S'Utopia'
p2244
sg15
I700
sg16
g2148
sg17
g2148
sg18
g1960
sg20
g2150
sbag1
(g8
g3
NtRp2245
(dp2246
g11
g2153
sg13
S'ITC Zapf Chancery'
p2247
sg15
I500
sg16
g2148
sg17
g2148
sg18
g1961
sg20
g2150
sbag1
(g8
g3
NtRp2248
(dp2249
g11
g2153
sg13
S'ITC Avant Garde Gothic'
p2250
sg15
I400
sg16
g2148
sg17
g2148
sg18
g1962
sg20
g2150
sbag1
(g8
g3
NtRp2251
(dp2252
g11
g2153
sg13
S'Times'
p2253
sg15
I500
sg16
g2148
sg17
g2148
sg18
g1963
sg20
g2150
sbag1
(g8
g3
NtRp2254
(dp2255
g11
g2148
sg13
S'Courier'
p2256
sg15
I700
sg16
g2148
sg17
g2148
sg18
g1964
sg20
g2150
sbag1
(g8
g3
NtRp2257
(dp2258
g11
g2153
sg13
S'Helvetica'
p2259
sg15
I500
sg16
Vcondensed
p2260
sg17
g2148
sg18
g1965
sg20
g2150
sbag1
(g8
g3
NtRp2261
(dp2262
g11
g2148
sg13
S'Helvetica'
p2263
sg15
I700
sg16
g2148
sg17
g2148
sg18
g1966
sg20
g2150
sbag1
(g8
g3
NtRp2264
(dp2265
g11
g2148
sg13
S'Palatino'
p2266
sg15
I700
sg16
g2148
sg17
g2148
sg18
g1967
sg20
g2150
sbag1
(g8
g3
NtRp2267
(dp2268
g11
g2153
sg13
S'Courier'
p2269
sg15
I700
sg16
g2148
sg17
g2148
sg18
g1968
sg20
g2150
sbag1
(g8
g3
NtRp2270
(dp2271
g11
g2148
sg13
S'ITC Avant Garde Gothic'
p2272
sg15
I400
sg16
g2148
sg17
g2148
sg18
g1969
sg20
g2150
sbag1
(g8
g3
NtRp2273
(dp2274
g11
g2148
sg13
S'Helvetica'
p2275
sg15
I700
sg16
g2148
sg17
g2148
sg18
g1970
sg20
g2150
sbag1
(g8
g3
NtRp2276
(dp2277
g11
g2153
sg13
S'Computer Modern'
p2278
sg15
I500
sg16
g2148
sg17
g2148
sg18
g1971
sg20
g2150
sbag1
(g8
g3
NtRp2279
(dp2280
g11
g2148
sg13
S'Courier'
p2281
sg15
I500
sg16
g2148
sg17
g2148
sg18
g1972
sg20
g2150
sbag1
(g8
g3
NtRp2282
(dp2283
g11
g2153
sg13
S'Computer Modern'
p2284
sg15
I500
sg16
g2148
sg17
g2148
sg18
g1973
sg20
g2150
sbag1
(g8
g3
NtRp2285
(dp2286
g11
g2153
sg13
S'New Century Schoolbook'
p2287
sg15
I500
sg16
g2148
sg17
g2148
sg18
g1974
sg20
g2150
sbag1
(g8
g3
NtRp2288
(dp2289
g11
g2153
sg13
S'Times'
p2290
sg15
I700
sg16
g2148
sg17
g2148
sg18
g1975
sg20
g2150
sbag1
(g8
g3
NtRp2291
(dp2292
g11
g2153
sg13
S'Palatino'
p2293
sg15
I700
sg16
g2148
sg17
g2148
sg18
g1976
sg20
g2150
sbag1
(g8
g3
NtRp2294
(dp2295
g11
g2148
sg13
S'Computer Modern'
p2296
sg15
I500
sg16
g2148
sg17
g2148
sg18
g1977
sg20
g2150
sbag1
(g8
g3
NtRp2297
(dp2298
g11
g2153
sg13
S'Helvetica'
p2299
sg15
I200
sg16
g2148
sg17
g2148
sg18
g1978
sg20
g2150
sbag1
(g8
g3
NtRp2300
(dp2301
g11
g2148
sg13
S'Courier'
p2302
sg15
I500
sg16
g2148
sg17
g2148
sg18
g1979
sg20
g2150
sbag1
(g8
g3
NtRp2303
(dp2304
g11
g2148
sg13
S'ITC Bookman'
p2305
sg15
I200
sg16
g2148
sg17
g2148
sg18
g1980
sg20
g2150
sbag1
(g8
g3
NtRp2306
(dp2307
g11
g2148
sg13
S'Helvetica'
p2308
sg15
I500
sg16
g2260
sg17
g2148
sg18
g1981
sg20
g2150
sbag1
(g8
g3
NtRp2309
(dp2310
g11
g2153
sg13
S'Helvetica'
p2311
sg15
I700
sg16
g2148
sg17
g2148
sg18
g1982
sg20
g2150
sbag1
(g8
g3
NtRp2312
(dp2313
g11
g2148
sg13
S'Helvetica'
p2314
sg15
I200
sg16
g2148
sg17
g2148
sg18
g1983
sg20
g2150
sbag1
(g8
g3
NtRp2315
(dp2316
g11
g2153
sg13
S'Utopia'
p2317
sg15
I700
sg16
g2148
sg17
g2148
sg18
g1984
sg20
g2150
sbag1
(g8
g3
NtRp2318
(dp2319
g11
g2148
sg13
S'Symbol'
p2320
sg15
I500
sg16
g2148
sg17
g2148
sg18
g1985
sg20
g2150
sbag1
(g8
g3
NtRp2321
(dp2322
g11
g2153
sg13
S'Helvetica'
p2323
sg15
I700
sg16
g2260
sg17
g2148
sg18
g1986
sg20
g2150
sbag1
(g8
g3
NtRp2324
(dp2325
g11
g2148
sg13
S'New Century Schoolbook'
p2326
sg15
I500
sg16
g2148
sg17
g2148
sg18
g1987
sg20
g2150
sbag1
(g8
g3
NtRp2327
(dp2328
g11
g2148
sg13
S'Helvetica'
p2329
sg15
I700
sg16
g2260
sg17
g2148
sg18
g1988
sg20
g2150
sbag1
(g8
g3
NtRp2330
(dp2331
g11
g2148
sg13
S'LMMono10'
p2332
sg15
I400
sg16
g2148
sg17
g2148
sg18
g1989
sg20
g2150
sbag1
(g8
g3
NtRp2333
(dp2334
g11
g2153
sg13
S'TeXGyreSchola'
p2335
sg15
I400
sg16
g2148
sg17
g2148
sg18
g1990
sg20
g2150
sbag1
(g8
g3
NtRp2336
(dp2337
g11
g2153
sg13
S'LMSansQuot8'
p2338
sg15
I400
sg16
g2148
sg17
g2148
sg18
g1991
sg20
g2150
sbag1
(g8
g3
NtRp2339
(dp2340
g11
g2153
sg13
S'Nimbus Sans L'
p2341
sg15
I400
sg16
g2260
sg17
g2148
sg18
g1992
sg20
g2150
sbag1
(g8
g3
NtRp2342
(dp2343
g11
g2148
sg13
S'URW Bookman L'
p2344
sg15
I700
sg16
g2148
sg17
g2148
sg18
g1993
sg20
g2150
sbag1
(g8
g3
NtRp2345
(dp2346
g11
g2153
sg13
S'LMRomanSlant10'
p2347
sg15
I700
sg16
g2148
sg17
g2148
sg18
g1994
sg20
g2150
sbag1
(g8
g3
NtRp2348
(dp2349
g11
g2153
sg13
S'URW Palladio L'
p2350
sg15
I700
sg16
g2148
sg17
g2148
sg18
g1996
sg20
g2150
sbag1
(g8
g3
NtRp2351
(dp2352
g11
g2153
sg13
S'Nimbus Mono L'
p2353
sg15
I700
sg16
g2148
sg17
g2148
sg18
g1997
sg20
g2150
sbag1
(g8
g3
NtRp2354
(dp2355
g11
g2148
sg13
S'LMMonoLtCond10'
p2356
sg15
I200
sg16
g2260
sg17
g2148
sg18
g1998
sg20
g2150
sbag1
(g8
g3
NtRp2357
(dp2358
g11
g2148
sg13
S'LMMonoLt10'
p2359
sg15
I700
sg16
g2148
sg17
g2148
sg18
g1999
sg20
g2150
sbag1
(g8
g3
NtRp2360
(dp2361
g11
g2148
sg13
S'TeXGyreBonum'
p2362
sg15
I400
sg16
g2148
sg17
g2148
sg18
g2000
sg20
g2150
sbag1
(g8
g3
NtRp2363
(dp2364
g11
g2148
sg13
S'LMRomanDunh10'
p2365
sg15
I400
sg16
g2148
sg17
g2148
sg18
g2001
sg20
g2150
sbag1
(g8
g3
NtRp2366
(dp2367
g11
g2148
sg13
S'Nimbus Sans L'
p2368
sg15
I400
sg16
g2148
sg17
g2148
sg18
g2002
sg20
g2150
sbag1
(g8
g3
NtRp2369
(dp2370
g11
g2153
sg13
S'Nimbus Mono L'
p2371
sg15
I400
sg16
g2148
sg17
g2148
sg18
g2003
sg20
g2150
sbag1
(g8
g3
NtRp2372
(dp2373
g11
g2153
sg13
S'URW Bookman L'
p2374
sg15
I400
sg16
g2148
sg17
g2148
sg18
g2004
sg20
g2150
sbag1
(g8
g3
NtRp2375
(dp2376
g11
g2148
sg13
S'URW Palladio L'
p2377
sg15
I700
sg16
g2148
sg17
g2148
sg18
g2005
sg20
g2150
sbag1
(g8
g3
NtRp2378
(dp2379
g11
g2148
sg13
S'URW Gothic L'
p2380
sg15
I400
sg16
g2148
sg17
g2148
sg18
g2006
sg20
g2150
sbag1
(g8
g3
NtRp2381
(dp2382
g11
g2153
sg13
S'Nimbus Sans L'
p2383
sg15
I400
sg16
g2148
sg17
g2148
sg18
g2007
sg20
g2150
sbag1
(g8
g3
NtRp2384
(dp2385
g11
g2148
sg13
S'TeXGyreCursor'
p2386
sg15
I400
sg16
g2148
sg17
g2148
sg18
g2008
sg20
g2150
sbag1
(g8
g3
NtRp2387
(dp2388
g11
g2153
sg13
S'URW Bookman L'
p2389
sg15
I700
sg16
g2148
sg17
g2148
sg18
g2009
sg20
g2150
sbag1
(g8
g3
NtRp2390
(dp2391
g11
g2153
sg13
S'Century Schoolbook L'
p2392
sg15
I700
sg16
g2148
sg17
g2148
sg18
g2010
sg20
g2150
sbag1
(g8
g3
NtRp2393
(dp2394
g11
g2148
sg13
S'Century Schoolbook L'
p2395
sg15
I700
sg16
g2148
sg17
g2148
sg18
g2011
sg20
g2150
sbag1
(g8
g3
NtRp2396
(dp2397
g11
g2148
sg13
S'Century Schoolbook L'
p2398
sg15
I500
sg16
g2148
sg17
g2148
sg18
g2012
sg20
g2150
sbag1
(g8
g3
NtRp2399
(dp2400
g11
g2148
sg13
S'LMSans10'
p2401
sg15
I700
sg16
g2148
sg17
g2148
sg18
g2013
sg20
g2150
sbag1
(g8
g3
NtRp2402
(dp2403
g11
g2148
sg13
S'TeXGyreHerosCondensed'
p2404
sg15
I700
sg16
g2260
sg17
g2148
sg18
g2014
sg20
g2150
sbag1
(g8
g3
NtRp2405
(dp2406
g11
g2148
sg13
S'TeXGyreTermes'
p2407
sg15
I700
sg16
g2148
sg17
g2148
sg18
g2015
sg20
g2150
sbag1
(g8
g3
NtRp2408
(dp2409
g11
g2153
sg13
S'LMMonoPropLt10'
p2410
sg15
I200
sg16
g2148
sg17
g2148
sg18
g2016
sg20
g2150
sbag1
(g8
g3
NtRp2411
(dp2412
g11
g2153
sg13
S'LMMonoCaps10'
p2413
sg15
I400
sg16
g2148
sg17
g2148
sg18
g2017
sg20
g2150
sbag1
(g8
g3
NtRp2414
(dp2415
g11
g2153
sg13
S'LMMono10'
p2416
sg15
I400
sg16
g2148
sg17
g2148
sg18
g2018
sg20
g2150
sbag1
(g8
g3
NtRp2417
(dp2418
g11
g2153
sg13
S'Nimbus Roman No9 L'
p2419
sg15
I700
sg16
g2148
sg17
g2148
sg18
g2019
sg20
g2150
sbag1
(g8
g3
NtRp2420
(dp2421
g11
g2153
sg13
S'Nimbus Sans L'
p2422
sg15
I700
sg16
g2148
sg17
g2148
sg18
g2020
sg20
g2150
sbag1
(g8
g3
NtRp2423
(dp2424
g11
g2153
sg13
S'TeXGyreHeros'
p2425
sg15
I700
sg16
g2148
sg17
g2148
sg18
g2021
sg20
g2150
sbag1
(g8
g3
NtRp2426
(dp2427
g11
g2148
sg13
S'TeXGyreSchola'
p2428
sg15
I700
sg16
g2148
sg17
g2148
sg18
g2022
sg20
g2150
sbag1
(g8
g3
NtRp2429
(dp2430
g11
g2148
sg13
S'LMRoman10'
p2431
sg15
I700
sg16
g2148
sg17
g2148
sg18
g2023
sg20
g2150
sbag1
(g8
g3
NtRp2432
(dp2433
g11
g2148
sg13
S'Dingbats'
p2434
sg15
I400
sg16
g2148
sg17
g2148
sg18
g2024
sg20
g2150
sbag1
(g8
g3
NtRp2435
(dp2436
g11
g2153
sg13
S'LMSansDemiCond10'
p2437
sg15
I600
sg16
g2260
sg17
g2148
sg18
g2025
sg20
g2150
sbag1
(g8
g3
NtRp2438
(dp2439
g11
g2148
sg13
S'LMSansQuot8'
p2440
sg15
I700
sg16
g2148
sg17
g2148
sg18
g2026
sg20
g2150
sbag1
(g8
g3
NtRp2441
(dp2442
g11
g2148
sg13
S'TeXGyreHeros'
p2443
sg15
I700
sg16
g2148
sg17
g2148
sg18
g2027
sg20
g2150
sbag1
(g8
g3
NtRp2444
(dp2445
g11
g2148
sg13
S'LMRomanDemi10'
p2446
sg15
I600
sg16
g2148
sg17
g2148
sg18
g2028
sg20
g2150
sbag1
(g8
g3
NtRp2447
(dp2448
g11
g2148
sg13
S'Nimbus Mono L'
p2449
sg15
I400
sg16
g2148
sg17
g2148
sg18
g2030
sg20
g2150
sbag1
(g8
g3
NtRp2450
(dp2451
g11
g2148
sg13
S'Nimbus Sans L'
p2452
sg15
I700
sg16
g2260
sg17
g2148
sg18
g2031
sg20
g2150
sbag1
(g8
g3
NtRp2453
(dp2454
g11
g2153
sg13
S'URW Chancery L'
p2455
sg15
I500
sg16
g2148
sg17
g2148
sg18
g2032
sg20
g2150
sbag1
(g8
g3
NtRp2456
(dp2457
g11
g2148
sg13
S'Nimbus Sans L'
p2458
sg15
I400
sg16
g2148
sg17
g2148
sg18
g2033
sg20
g2150
sbag1
(g8
g3
NtRp2459
(dp2460
g11
g2148
sg13
S'TeXGyreHeros'
p2461
sg15
I400
sg16
g2148
sg17
g2148
sg18
g2034
sg20
g2150
sbag1
(g8
g3
NtRp2462
(dp2463
g11
g2153
sg13
S'LMRoman10'
p2464
sg15
I700
sg16
g2148
sg17
g2148
sg18
g2035
sg20
g2150
sbag1
(g8
g3
NtRp2465
(dp2466
g11
g2148
sg13
S'URW Bookman L'
p2467
sg15
I400
sg16
g2148
sg17
g2148
sg18
g2038
sg20
g2150
sbag1
(g8
g3
NtRp2468
(dp2469
g11
g2153
sg13
S'LMRomanSlant10'
p2470
sg15
I400
sg16
g2148
sg17
g2148
sg18
g2039
sg20
g2150
sbag1
(g8
g3
NtRp2471
(dp2472
g11
g2148
sg13
S'TeXGyrePagella'
p2473
sg15
I400
sg16
g2148
sg17
g2148
sg18
g2040
sg20
g2150
sbag1
(g8
g3
NtRp2474
(dp2475
g11
g2153
sg13
S'Nimbus Sans L'
p2476
sg15
I700
sg16
g2148
sg17
g2148
sg18
g2041
sg20
g2150
sbag1
(g8
g3
NtRp2477
(dp2478
g11
g2148
sg13
S'TeXGyreSchola'
p2479
sg15
I400
sg16
g2148
sg17
g2148
sg18
g2042
sg20
g2150
sbag1
(g8
g3
NtRp2480
(dp2481
g11
g2153
sg13
S'URW Palladio L'
p2482
sg15
I400
sg16
g2148
sg17
g2148
sg18
g2043
sg20
g2150
sbag1
(g8
g3
NtRp2483
(dp2484
g11
g2153
sg13
S'Nimbus Roman No9 L'
p2485
sg15
I400
sg16
g2148
sg17
g2148
sg18
g2044
sg20
g2150
sbag1
(g8
g3
NtRp2486
(dp2487
g11
g2148
sg13
S'URW Gothic L'
p2488
sg15
I400
sg16
g2148
sg17
g2148
sg18
g2045
sg20
g2150
sbag1
(g8
g3
NtRp2489
(dp2490
g11
g2148
sg13
S'Nimbus Mono L'
p2491
sg15
I700
sg16
g2148
sg17
g2148
sg18
g2046
sg20
g2150
sbag1
(g8
g3
NtRp2492
(dp2493
g11
g2153
sg13
S'TeXGyreAdventor'
p2494
sg15
I400
sg16
g2148
sg17
g2148
sg18
g2047
sg20
g2150
sbag1
(g8
g3
NtRp2495
(dp2496
g11
g2153
sg13
S'TeXGyreBonum'
p2497
sg15
I700
sg16
g2148
sg17
g2148
sg18
g2048
sg20
g2150
sbag1
(g8
g3
NtRp2498
(dp2499
g11
g2153
sg13
S'Bitstream Charter'
p2500
sg15
I700
sg16
g2148
sg17
g2148
sg18
g2049
sg20
g2150
sbag1
(g8
g3
NtRp2501
(dp2502
g11
g2153
sg13
S'Century Schoolbook L'
p2503
sg15
I700
sg16
g2148
sg17
g2148
sg18
g2050
sg20
g2150
sbag1
(g8
g3
NtRp2504
(dp2505
g11
g2148
sg13
S'LMRomanCaps10'
p2506
sg15
I400
sg16
g2148
sg17
g2148
sg18
g2051
sg20
g2150
sbag1
(g8
g3
NtRp2507
(dp2508
g11
g2148
sg13
S'URW Bookman L'
p2509
sg15
I400
sg16
g2148
sg17
g2148
sg18
g2052
sg20
g2150
sbag1
(g8
g3
NtRp2510
(dp2511
g11
g2153
sg13
S'TeXGyreCursor'
p2512
sg15
I700
sg16
g2148
sg17
g2148
sg18
g2053
sg20
g2150
sbag1
(g8
g3
NtRp2513
(dp2514
g11
g2148
sg13
S'TeXGyreCursor'
p2515
sg15
I700
sg16
g2148
sg17
g2148
sg18
g2054
sg20
g2150
sbag1
(g8
g3
NtRp2516
(dp2517
g11
g2153
sg13
S'LMSansQuot8'
p2518
sg15
I700
sg16
g2148
sg17
g2148
sg18
g2055
sg20
g2150
sbag1
(g8
g3
NtRp2519
(dp2520
g11
g2148
sg13
S'URW Palladio L'
p2521
sg15
I500
sg16
g2148
sg17
g2148
sg18
g2056
sg20
g2150
sbag1
(g8
g3
NtRp2522
(dp2523
g11
g2153
sg13
S'URW Bookman L'
p2524
sg15
I400
sg16
g2148
sg17
g2148
sg18
g2057
sg20
g2150
sbag1
(g8
g3
NtRp2525
(dp2526
g11
g2148
sg13
S'LMMonoPropLt10'
p2527
sg15
I700
sg16
g2148
sg17
g2148
sg18
g2058
sg20
g2150
sbag1
(g8
g3
NtRp2528
(dp2529
g11
g2153
sg13
S'Nimbus Roman No9 L'
p2530
sg15
I400
sg16
g2148
sg17
g2148
sg18
g2059
sg20
g2150
sbag1
(g8
g3
NtRp2531
(dp2532
g11
g2153
sg13
S'TeXGyreHeros'
p2533
sg15
I400
sg16
g2148
sg17
g2148
sg18
g2060
sg20
g2150
sbag1
(g8
g3
NtRp2534
(dp2535
g11
g2153
sg13
S'LMMonoLt10'
p2536
sg15
I200
sg16
g2148
sg17
g2148
sg18
g2061
sg20
g2150
sbag1
(g8
g3
NtRp2537
(dp2538
g11
g2148
sg13
S'LMMonoPropLt10'
p2539
sg15
I200
sg16
g2148
sg17
g2148
sg18
g2062
sg20
g2150
sbag1
(g8
g3
NtRp2540
(dp2541
g11
g2148
sg13
S'Nimbus Roman No9 L'
p2542
sg15
I400
sg16
g2148
sg17
g2148
sg18
g2063
sg20
g2150
sbag1
(g8
g3
NtRp2543
(dp2544
g11
g2153
sg13
S'LMSans10'
p2545
sg15
I400
sg16
g2148
sg17
g2148
sg18
g2064
sg20
g2150
sbag1
(g8
g3
NtRp2546
(dp2547
g11
g2148
sg13
S'Standard Symbols L'
p2548
sg15
I400
sg16
g2148
sg17
g2148
sg18
g2065
sg20
g2150
sbag1
(g8
g3
NtRp2549
(dp2550
g11
g2148
sg13
S'Nimbus Roman No9 L'
p2551
sg15
I700
sg16
g2148
sg17
g2148
sg18
g2066
sg20
g2150
sbag1
(g8
g3
NtRp2552
(dp2553
g11
g2153
sg13
S'URW Palladio L'
p2554
sg15
I700
sg16
g2148
sg17
g2148
sg18
g2067
sg20
g2150
sbag1
(g8
g3
NtRp2555
(dp2556
g11
g2153
sg13
S'TeXGyreTermes'
p2557
sg15
I400
sg16
g2148
sg17
g2148
sg18
g2068
sg20
g2150
sbag1
(g8
g3
NtRp2558
(dp2559
g11
g2148
sg13
S'Century Schoolbook L'
p2560
sg15
I500
sg16
g2148
sg17
g2148
sg18
g2069
sg20
g2150
sbag1
(g8
g3
NtRp2561
(dp2562
g11
g2148
sg13
S'TeXGyreBonum'
p2563
sg15
I700
sg16
g2148
sg17
g2148
sg18
g2070
sg20
g2150
sbag1
(g8
g3
NtRp2564
(dp2565
g11
g2153
sg13
S'Nimbus Sans L'
p2566
sg15
I400
sg16
g2260
sg17
g2148
sg18
g2072
sg20
g2150
sbag1
(g8
g3
NtRp2567
(dp2568
g11
g2148
sg13
S'TeXGyreTermes'
p2569
sg15
I400
sg16
g2148
sg17
g2148
sg18
g2073
sg20
g2150
sbag1
(g8
g3
NtRp2570
(dp2571
g11
g2148
sg13
S'LMMonoCaps10'
p2572
sg15
I400
sg16
g2148
sg17
g2148
sg18
g2074
sg20
g2150
sbag1
(g8
g3
NtRp2573
(dp2574
g11
g2153
sg13
S'LMRomanCaps10'
p2575
sg15
I400
sg16
g2148
sg17
g2148
sg18
g2075
sg20
g2150
sbag1
(g8
g3
NtRp2576
(dp2577
g11
g2148
sg13
S'TeXGyreAdventor'
p2578
sg15
I700
sg16
g2148
sg17
g2148
sg18
g2076
sg20
g2150
sbag1
(g8
g3
NtRp2579
(dp2580
g11
g2153
sg13
S'LMMonoProp10'
p2581
sg15
I400
sg16
g2148
sg17
g2148
sg18
g2077
sg20
g2150
sbag1
(g8
g3
NtRp2582
(dp2583
g11
g2148
sg13
S'LMSans10'
p2584
sg15
I400
sg16
g2148
sg17
g2148
sg18
g2079
sg20
g2150
sbag1
(g8
g3
NtRp2585
(dp2586
g11
g2148
sg13
S'LMMonoProp10'
p2587
sg15
I400
sg16
g2148
sg17
g2148
sg18
g2080
sg20
g2150
sbag1
(g8
g3
NtRp2588
(dp2589
g11
g2153
sg13
S'URW Bookman L'
p2590
sg15
I700
sg16
g2148
sg17
g2148
sg18
g2081
sg20
g2150
sbag1
(g8
g3
NtRp2591
(dp2592
g11
g2153
sg13
S'LMRomanDunh10'
p2593
sg15
I400
sg16
g2148
sg17
g2148
sg18
g2082
sg20
g2150
sbag1
(g8
g3
NtRp2594
(dp2595
g11
g2153
sg13
S'TeXGyreTermes'
p2596
sg15
I700
sg16
g2148
sg17
g2148
sg18
g2083
sg20
g2150
sbag1
(g8
g3
NtRp2597
(dp2598
g11
g2153
sg13
S'TeXGyreSchola'
p2599
sg15
I400
sg16
g2148
sg17
g2148
sg18
g2084
sg20
g2150
sbag1
(g8
g3
NtRp2600
(dp2601
g11
g2148
sg13
S'Nimbus Mono L'
p2602
sg15
I700
sg16
g2148
sg17
g2148
sg18
g2086
sg20
g2150
sbag1
(g8
g3
NtRp2603
(dp2604
g11
g2153
sg13
S'TeXGyreHerosCondensed'
p2605
sg15
I700
sg16
g2260
sg17
g2148
sg18
g2087
sg20
g2150
sbag1
(g8
g3
NtRp2606
(dp2607
g11
g2153
sg13
S'Nimbus Roman No9 L'
p2608
sg15
I700
sg16
g2148
sg17
g2148
sg18
g2088
sg20
g2150
sbag1
(g8
g3
NtRp2609
(dp2610
g11
g2148
sg13
S'Nimbus Sans L'
p2611
sg15
I400
sg16
g2260
sg17
g2148
sg18
g2089
sg20
g2150
sbag1
(g8
g3
NtRp2612
(dp2613
g11
g2153
sg13
S'URW Chancery L'
p2614
sg15
I500
sg16
g2148
sg17
g2148
sg18
g2090
sg20
g2150
sbag1
(g8
g3
NtRp2615
(dp2616
g11
g2148
sg13
S'URW Gothic L'
p2617
sg15
I600
sg16
g2148
sg17
g2148
sg18
g2091
sg20
g2150
sbag1
(g8
g3
NtRp2618
(dp2619
g11
g2153
sg13
S'LMRoman10'
p2620
sg15
I400
sg16
g2148
sg17
g2148
sg18
g2092
sg20
g2150
sbag1
(g8
g3
NtRp2621
(dp2622
g11
g2148
sg13
S'Nimbus Sans L'
p2623
sg15
I700
sg16
g2148
sg17
g2148
sg18
g2093
sg20
g2150
sbag1
(g8
g3
NtRp2624
(dp2625
g11
g2148
sg13
S'LMRoman10'
p2626
sg15
I400
sg16
g2148
sg17
g2148
sg18
g2094
sg20
g2150
sbag1
(g8
g3
NtRp2627
(dp2628
g11
g2148
sg13
S'URW Gothic L'
p2629
sg15
I600
sg16
g2148
sg17
g2148
sg18
g2095
sg20
g2150
sbag1
(g8
g3
NtRp2630
(dp2631
g11
g2153
sg13
S'Century Schoolbook L'
p2632
sg15
I400
sg16
g2148
sg17
g2148
sg18
g2096
sg20
g2150
sbag1
(g8
g3
NtRp2633
(dp2634
g11
g2148
sg13
S'LMMonoLt10'
p2635
sg15
I200
sg16
g2148
sg17
g2148
sg18
g2097
sg20
g2150
sbag1
(g8
g3
NtRp2636
(dp2637
g11
g2148
sg13
S'Standard Symbols L'
p2638
sg15
I400
sg16
g2148
sg17
g2148
sg18
g2098
sg20
g2150
sbag1
(g8
g3
NtRp2639
(dp2640
g11
g2153
sg13
S'Nimbus Sans L'
p2641
sg15
I700
sg16
g2260
sg17
g2148
sg18
g2099
sg20
g2150
sbag1
(g8
g3
NtRp2642
(dp2643
g11
g2153
sg13
S'TeXGyrePagella'
p2644
sg15
I400
sg16
g2148
sg17
g2148
sg18
g2100
sg20
g2150
sbag1
(g8
g3
NtRp2645
(dp2646
g11
g2153
sg13
S'TeXGyreAdventor'
p2647
sg15
I700
sg16
g2148
sg17
g2148
sg18
g2101
sg20
g2150
sbag1
(g8
g3
NtRp2648
(dp2649
g11
g2148
sg13
S'TeXGyreHerosCondensed'
p2650
sg15
I400
sg16
g2260
sg17
g2148
sg18
g2102
sg20
g2150
sbag1
(g8
g3
NtRp2651
(dp2652
g11
g2153
sg13
S'LMMonoLtCond10'
p2653
sg15
I200
sg16
g2260
sg17
g2148
sg18
g2103
sg20
g2150
sbag1
(g8
g3
NtRp2654
(dp2655
g11
g2148
sg13
S'Century Schoolbook L'
p2656
sg15
I700
sg16
g2148
sg17
g2148
sg18
g2104
sg20
g2150
sbag1
(g8
g3
NtRp2657
(dp2658
g11
g2148
sg13
S'TeXGyrePagella'
p2659
sg15
I700
sg16
g2148
sg17
g2148
sg18
g2105
sg20
g2150
sbag1
(g8
g3
NtRp2660
(dp2661
g11
g2148
sg13
S'Nimbus Mono L'
p2662
sg15
I400
sg16
g2148
sg17
g2148
sg18
g2106
sg20
g2150
sbag1
(g8
g3
NtRp2663
(dp2664
g11
g2153
sg13
S'URW Gothic L'
p2665
sg15
I400
sg16
g2148
sg17
g2148
sg18
g2107
sg20
g2150
sbag1
(g8
g3
NtRp2666
(dp2667
g11
g2153
sg13
S'LMMonoPropLt10'
p2668
sg15
I700
sg16
g2148
sg17
g2148
sg18
g2108
sg20
g2150
sbag1
(g8
g3
NtRp2669
(dp2670
g11
g2153
sg13
S'Bitstream Charter'
p2671
sg15
I400
sg16
g2148
sg17
g2148
sg18
g2109
sg20
g2150
sbag1
(g8
g3
NtRp2672
(dp2673
g11
g2148
sg13
S'Bitstream Charter'
p2674
sg15
I700
sg16
g2148
sg17
g2148
sg18
g2110
sg20
g2150
sbag1
(g8
g3
NtRp2675
(dp2676
g11
g2148
sg13
S'Nimbus Sans L'
p2677
sg15
I400
sg16
g2260
sg17
g2148
sg18
g2111
sg20
g2150
sbag1
(g8
g3
NtRp2678
(dp2679
g11
g2148
sg13
S'URW Palladio L'
p2680
sg15
I700
sg16
g2148
sg17
g2148
sg18
g2112
sg20
g2150
sbag1
(g8
g3
NtRp2681
(dp2682
g11
g2153
sg13
S'TeXGyreCursor'
p2683
sg15
I400
sg16
g2148
sg17
g2148
sg18
g2113
sg20
g2150
sbag1
(g8
g3
NtRp2684
(dp2685
g11
g2153
sg13
S'Nimbus Mono L'
p2686
sg15
I700
sg16
g2148
sg17
g2148
sg18
g2114
sg20
g2150
sbag1
(g8
g3
NtRp2687
(dp2688
g11
g2153
sg13
S'Nimbus Sans L'
p2689
sg15
I700
sg16
g2260
sg17
g2148
sg18
g2115
sg20
g2150
sbag1
(g8
g3
NtRp2690
(dp2691
g11
g2148
sg13
S'URW Bookman L'
p2692
sg15
I700
sg16
g2148
sg17
g2148
sg18
g2116
sg20
g2150
sbag1
(g8
g3
NtRp2693
(dp2694
g11
g2153
sg13
S'URW Gothic L'
p2695
sg15
I400
sg16
g2148
sg17
g2148
sg18
g2117
sg20
g2150
sbag1
(g8
g3
NtRp2696
(dp2697
g11
g2148
sg13
S'URW Palladio L'
p2698
sg15
I500
sg16
g2148
sg17
g2148
sg18
g2118
sg20
g2150
sbag1
(g8
g3
NtRp2699
(dp2700
g11
g2148
sg13
S'Nimbus Sans L'
p2701
sg15
I700
sg16
g2260
sg17
g2148
sg18
g2119
sg20
g2150
sbag1
(g8
g3
NtRp2702
(dp2703
g11
g2148
sg13
S'Nimbus Roman No9 L'
p2704
sg15
I700
sg16
g2148
sg17
g2148
sg18
g2120
sg20
g2150
sbag1
(g8
g3
NtRp2705
(dp2706
g11
g2148
sg13
S'Nimbus Sans L'
p2707
sg15
I700
sg16
g2148
sg17
g2148
sg18
g2121
sg20
g2150
sbag1
(g8
g3
NtRp2708
(dp2709
g11
g2148
sg13
S'LMSansQuot8'
p2710
sg15
I400
sg16
g2148
sg17
g2148
sg18
g2122
sg20
g2150
sbag1
(g8
g3
NtRp2711
(dp2712
g11
g2153
sg13
S'LMSans10'
p2713
sg15
I700
sg16
g2148
sg17
g2148
sg18
g2123
sg20
g2150
sbag1
(g8
g3
NtRp2714
(dp2715
g11
g2148
sg13
S'TeXGyreAdventor'
p2716
sg15
I400
sg16
g2148
sg17
g2148
sg18
g2125
sg20
g2150
sbag1
(g8
g3
NtRp2717
(dp2718
g11
g2153
sg13
S'Century Schoolbook L'
p2719
sg15
I400
sg16
g2148
sg17
g2148
sg18
g2126
sg20
g2150
sbag1
(g8
g3
NtRp2720
(dp2721
g11
g2148
sg13
S'Nimbus Roman No9 L'
p2722
sg15
I400
sg16
g2148
sg17
g2148
sg18
g2127
sg20
g2150
sbag1
(g8
g3
NtRp2723
(dp2724
g11
g2148
sg13
S'Bitstream Charter'
p2725
sg15
I400
sg16
g2148
sg17
g2148
sg18
g2128
sg20
g2150
sbag1
(g8
g3
NtRp2726
(dp2727
g11
g2153
sg13
S'Nimbus Sans L'
p2728
sg15
I400
sg16
g2148
sg17
g2148
sg18
g2129
sg20
g2150
sbag1
(g8
g3
NtRp2729
(dp2730
g11
g2153
sg13
S'LMMonoLt10'
p2731
sg15
I700
sg16
g2148
sg17
g2148
sg18
g2130
sg20
g2150
sbag1
(g8
g3
NtRp2732
(dp2733
g11
g2153
sg13
S'TeXGyreChorus'
p2734
sg15
I500
sg16
g2148
sg17
g2148
sg18
g2131
sg20
g2150
sbag1
(g8
g3
NtRp2735
(dp2736
g11
g2153
sg13
S'LMRomanDemi10'
p2737
sg15
I600
sg16
g2148
sg17
g2148
sg18
g2132
sg20
g2150
sbag1
(g8
g3
NtRp2738
(dp2739
g11
g2153
sg13
S'URW Palladio L'
p2740
sg15
I400
sg16
g2148
sg17
g2148
sg18
g2133
sg20
g2150
sbag1
(g8
g3
NtRp2741
(dp2742
g11
g2153
sg13
S'TeXGyrePagella'
p2743
sg15
I700
sg16
g2148
sg17
g2148
sg18
g2134
sg20
g2150
sbag1
(g8
g3
NtRp2744
(dp2745
g11
g2153
sg13
S'URW Gothic L'
p2746
sg15
I600
sg16
g2148
sg17
g2148
sg18
g2135
sg20
g2150
sbag1
(g8
g3
NtRp2747
(dp2748
g11
g2148
sg13
S'LMSansDemiCond10'
p2749
sg15
I600
sg16
g2260
sg17
g2148
sg18
g2136
sg20
g2150
sbag1
(g8
g3
NtRp2750
(dp2751
g11
g2153
sg13
S'LMMonoSlant10'
p2752
sg15
I400
sg16
g2148
sg17
g2148
sg18
g2137
sg20
g2150
sbag1
(g8
g3
NtRp2753
(dp2754
g11
g2153
sg13
S'Nimbus Mono L'
p2755
sg15
I400
sg16
g2148
sg17
g2148
sg18
g2138
sg20
g2150
sbag1
(g8
g3
NtRp2756
(dp2757
g11
g2153
sg13
S'TeXGyreHerosCondensed'
p2758
sg15
I400
sg16
g2260
sg17
g2148
sg18
g2139
sg20
g2150
sbag1
(g8
g3
NtRp2759
(dp2760
g11
g2153
sg13
S'URW Gothic L'
p2761
sg15
I600
sg16
g2148
sg17
g2148
sg18
g2140
sg20
g2150
sbag1
(g8
g3
NtRp2762
(dp2763
g11
g2153
sg13
S'TeXGyreBonum'
p2764
sg15
I400
sg16
g2148
sg17
g2148
sg18
g2141
sg20
g2150
sbag1
(g8
g3
NtRp2765
(dp2766
g11
g2148
sg13
S'Dingbats'
p2767
sg15
I400
sg16
g2148
sg17
g2148
sg18
g2142
sg20
g2150
sbag1
(g8
g3
NtRp2768
(dp2769
g11
g2148
sg13
S'LMRomanUnsl10'
p2770
sg15
I400
sg16
g2148
sg17
g2148
sg18
g2143
sg20
g2150
sbasb.